(dp0
S'limited'
p1
S'limited'
p2
sS'@ispycindy'
p3
S'@ispycindy'
p4
sS'fawk'
p5
S'fuck'
p6
sS'yellow'
p7
S'yellow'
p8
sS'andre'
p9
S'andre'
p10
sS'sleep'
p11
S'sleep'
p12
sS'spiders'
p13
S'spiders'
p14
sS'hating'
p15
S'hating'
p16
sS'hate'
p17
S'hate'
p18
sS'poorly'
p19
S'poorly'
p20
sS'relationships'
p21
S'relationships'
p22
sS'allll'
p23
S'all'
p24
sS'auh'
p25
S'auh'
p26
sS'tweet'
p27
S'tweet'
p28
sS'list'
p29
S'list'
p30
sS'@chrispirillo'
p31
S'@chrispirillo'
p32
sS'upload'
p33
S'upload'
p34
sS'under'
p35
S'under'
p36
sS'teaching'
p37
S'teaching'
p38
sS'sorry'
p39
S'sorry'
p40
sS'worth'
p41
S'worth'
p42
sS'@e_gotti'
p43
S'@e_gotti'
p44
sS'@'
p45
g45
sS'yihaaa'
p46
S'yihaaa'
p47
sS'microsoft'
p48
S'microsoft'
p49
sS'lurvv'
p50
S'love'
p51
sS'neway'
p52
S'neway'
p53
sS'http://tmi.me/2yjf5'
p54
S'http://tmi.me/2yjf5'
p55
sS'every'
p56
S'every'
p57
sS'updates'
p58
S'updates'
p59
sS'@jazyjay05'
p60
S'@jazyjay05'
p61
sS'month'
p62
S'month'
p63
sS'@cherrymartines'
p64
S'@cherrymartines'
p65
sS'rtshe'
p66
S'rtshe'
p67
sS'http://twitpic.com/30nuah'
p68
S'http://twitpic.com/30nuah'
p69
sS'school'
p70
S'school'
p71
sS'baking'
p72
S'baking'
p73
sS'@itsmechelseavee'
p74
S'@itsmechelseavee'
p75
sS'skills'
p76
S'skills'
p77
sS'loneliness'
p78
S'loneliness'
p79
sS'@andywoolloo'
p80
S'@andywoolloo'
p81
sS'wednesday'
p82
S'wednesday'
p83
sS'carrie'
p84
S'carrie'
p85
sS'math'
p86
S'math'
p87
sS'2funny'
p88
S'2funny'
p89
sS'cofused'
p90
S'confused'
p91
sS'okiee'
p92
S'okay'
p93
sS'heading'
p94
S'heading'
p95
sS'sachin'
p96
S'sachin'
p97
sS'clothes'
p98
S'clothes'
p99
sS'10k'
p100
S'10k'
p101
sS'force'
p102
S'force'
p103
sS'tired'
p104
S'tired'
p105
sS'phones'
p106
S'phones'
p107
sS'chey'
p108
S'chey'
p109
sS'nail'
p110
S'nail'
p111
sS'second'
p112
S'second'
p113
sS'fux'
p114
S'fucks'
p115
sS'liao'
p116
S'liao'
p117
sS'n'
p118
S'and'
p119
sS'nthn'
p120
S'nothing'
p121
sS'weddingg'
p122
S'wedding'
p123
sS'even'
p124
S'even'
p125
sS'thunder'
p126
S'thunder'
p127
sS'deadmau5'
p128
S'deadmau5'
p129
sS'cooking'
p130
S'cooking'
p131
sS'fingers'
p132
S'fingers'
p133
sS'bipolar'
p134
S'bipolar'
p135
sS'@dcoiinz'
p136
S'@dcoiinz'
p137
sS'above'
p138
S'above'
p139
sS'new'
p140
S'new'
p141
sS'fall'
p142
S'fall'
p143
sS'http://tinyurl.com/28vqjm2'
p144
S'http://tinyurl.com/28vqjm2'
p145
sS'ever'
p146
S'ever'
p147
sS'told'
p148
S'told'
p149
sS'mee'
p150
S'me'
p151
sS'@bdotdiddy20'
p152
S'@bdotdiddy20'
p153
sS'niche'
p154
S'niche'
p155
sS'shutup'
p156
S'shutup'
p157
sS'culd'
p158
S'could'
p159
sS'sunbeams'
p160
S'sunbeams'
p161
sS'never'
p162
S'never'
p163
sS'lodg'
p164
S'lodged'
p165
sS'meh'
p166
S'me'
p167
sS'here'
p168
S'here'
p169
sS'met'
p170
S'met'
p171
sS'aqen'
p172
S'again'
p173
sS'china'
p174
S'china'
p175
sS'100'
p176
S'100'
p177
sS'101'
p178
S'101'
p179
sS'hert'
p180
S'hurt'
p181
sS'kids'
p182
S'kids'
p183
sS'@getemslump'
p184
S'@getemslump'
p185
sS'forum'
p186
S'forum'
p187
sS'items'
p188
S'items'
p189
sS'study'
p190
S'study'
p191
sS'jamz'
p192
S'jamz'
p193
sS'walkin'
p194
S'walking'
p195
sS'tv'
p196
S'tv'
p197
sS"i'd"
p198
S"i'd"
p199
sS'#waoh'
p200
S'#waoh'
p201
sS'lml'
p202
S'lml'
p203
sS"i'm"
p204
S"i'm"
p205
sS'@renardm'
p206
S'@renardm'
p207
sS'hunch'
p208
S'hunch'
p209
sS'mobility'
p210
S'mobility'
p211
sS'@maikotsu'
p212
S'@maikotsu'
p213
sS'grandma'
p214
S'grandma'
p215
sS'@teababy_8'
p216
S'@teababy_8'
p217
sS'feelings'
p218
S'feelings'
p219
sS'brought'
p220
S'brought'
p221
sS'hahahahah'
p222
S'hahahahah'
p223
sS'@taylorsymonej'
p224
S'@taylorsymonej'
p225
sS'@tweetinassnigga'
p226
S'@tweetinassnigga'
p227
sS'txt'
p228
S'text'
p229
sS'#1love'
p230
S'#1love'
p231
sS'yuhr'
p232
S'your'
p233
sS'cheating'
p234
S'cheating'
p235
sS'would'
p236
S'would'
p237
sS'hospital'
p238
S'hospital'
p239
sS'bizness'
p240
S'business'
p241
sS'negative'
p242
S'negative'
p243
sS'dnt'
p244
S"didn't"
p245
sS'music'
p246
S'music'
p247
sS'calm'
p248
S'calm'
p249
sS'@tre_mukai'
p250
S'@tre_mukai'
p251
sS'tryin'
p252
S'trying'
p253
sS'type'
p254
S'type'
p255
sS'tell'
p256
S'tell'
p257
sS'separated'
p258
S'separated'
p259
sS'effin'
p260
S'effin'
p261
sS'http://bit.ly/amuot3'
p262
S'http://bit.ly/amuot3'
p263
sS'paperwork'
p264
S'paperwork'
p265
sS'posting'
p266
S'posting'
p267
sS'@kidkillahsam'
p268
S'@kidkillahsam'
p269
sS'haha'
p270
S'haha'
p271
sS'yahoo'
p272
S'yahoo'
p273
sS'hurt'
p274
S'hurt'
p275
sS'phone'
p276
S'phone'
p277
sS'arms'
p278
S'arms'
p279
sS'excellent'
p280
S'excellent'
p281
sS'brugge'
p282
S'brugge'
p283
sS'hold'
p284
S'hold'
p285
sS'@mr_camron'
p286
S'@mr_camron'
p287
sS'must'
p288
S'must'
p289
sS'me'
p290
S'me'
p291
sS'md'
p292
S'md'
p293
sS'mf'
p294
S'motherfucker'
p295
sS'@angkysuryawan'
p296
S'@angkysuryawan'
p297
sS'wore'
p298
S'wore'
p299
sS'err'
p300
S'err'
p301
sS'rights'
p302
S'rights'
p303
sS'presentation'
p304
S'presentation'
p305
sS'work'
p306
S'work'
p307
sS'mi'
p308
S'mi'
p309
sS'tnx'
p310
S'thanks'
p311
sS'genitalia'
p312
S'genitalia'
p313
sS'cuddle'
p314
S'cuddle'
p315
sS'vergin'
p316
S'virgin'
p317
sS'my'
p318
S'my'
p319
sS'example'
p320
S'example'
p321
sS'goood'
p322
S'good'
p323
sS'looooong'
p324
S'long'
p325
sS'give'
p326
S'give'
p327
sS'sugarpill'
p328
S'sugarpill'
p329
sS'frown'
p330
S'frown'
p331
sS'#worstrappersofthedecade'
p332
S'#worstrappersofthedecade'
p333
sS'wal-mart'
p334
S'wal-mart'
p335
sS'homie'
p336
S'homeboy'
p337
sS'want'
p338
S'want'
p339
sS'keep'
p340
S'keep'
p341
sS'yaaaay'
p342
S'yay'
p343
sS'@liljmment'
p344
S'@liljmment'
p345
sS'hoe'
p346
S'hoe'
p347
sS'end'
p348
S'end'
p349
sS"thak's"
p350
S'thanks'
p351
sS'trill'
p352
S'trill'
p353
sS'thing'
p354
S'thing'
p355
sS'hov'
p356
S'hov'
p357
sS'how'
p358
S'how'
p359
sS'amazing'
p360
S'amazing'
p361
sS'boats'
p362
S'boats'
p363
sS'@taylorswift13'
p364
S'@taylorswift13'
p365
sS'ordinary'
p366
S'ordinary'
p367
sS'beach'
p368
S'beach'
p369
sS'ovr'
p370
S'over'
p371
sS'badly'
p372
S'badly'
p373
sS'sippp'
p374
S'sippp'
p375
sS'beauty'
p376
S'beauty'
p377
sS'bday'
p378
S'birthday'
p379
sS'after'
p380
S'after'
p381
sS'wrong'
p382
S'wrong'
p383
sS'lay'
p384
S'lay'
p385
sS'@inkmyholebody'
p386
S'@inkmyholebody'
p387
sS'sorta'
p388
S'sorta'
p389
sS'plies'
p390
S'plies'
p391
sS'danny'
p392
S'danny'
p393
sS'third'
p394
S'third'
p395
sS'ugh-good'
p396
S'ugh-good'
p397
sS'@migy24'
p398
S'@migy24'
p399
sS'appreciate'
p400
S'appreciate'
p401
sS'cigarettes'
p402
S'cigarettes'
p403
sS'buggin'
p404
S'bugging'
p405
sS'ultimate'
p406
S'ultimate'
p407
sS'goodbye'
p408
S'goodbye'
p409
sS'keeps'
p410
S'keeps'
p411
sS'fan'
p412
S'fan'
p413
sS'first'
p414
S'first'
p415
sS'@jonomite'
p416
S'@jonomite'
p417
sS'riri'
p418
S'riri'
p419
sS'office'
p420
S'office'
p421
sS'enter'
p422
S'enter'
p423
sS'wuz'
p424
S"what's"
p425
sS'over'
p426
S'over'
p427
sS'bleach'
p428
S'bleach'
p429
sS'mackin'
p430
S'making'
p431
sS'jerry'
p432
S'jerry'
p433
sS'@welovejwitz'
p434
S'@welovejwitz'
p435
sS'@pastellll'
p436
S'@pastellll'
p437
sS'lefty-miller'
p438
S'lefty-miller'
p439
sS'wud'
p440
S'would'
p441
sS'japan'
p442
S'japan'
p443
sS'@m_mtl89'
p444
S'@m_mtl89'
p445
sS'before'
p446
S'before'
p447
sS'ima'
p448
S"I'll"
p449
sS'personal'
p450
S'personal'
p451
sS'@blendaseabra'
p452
S'@blendaseabra'
p453
sS','
p454
g454
sS'imo'
p455
S'imo'
p456
sS'writing'
p457
S'writing'
p458
sS'better'
p459
S'better'
p460
sS'@justinbieber'
p461
S'@justinbieber'
p462
sS'@sb_pwild'
p463
S'@sb_pwild'
p464
sS'differently'
p465
S'differently'
p466
sS'fie'
p467
S'fie'
p468
sS'weeks'
p469
S'weeks'
p470
sS'easier'
p471
S'easier'
p472
sS'd4t'
p473
S'that'
p474
sS'then'
p475
S'then'
p476
sS'them'
p477
S'them'
p478
sS'glorify'
p479
S'glorify'
p480
sS'remmebner'
p481
S'remember'
p482
sS'`'
p483
g483
sS'powerful'
p484
S'powerful'
p485
sS'@myfabolouslife'
p486
S'@myfabolouslife'
p487
sS"we'll"
p488
S"we'll"
p489
sS'break'
p490
S'break'
p491
sS'band'
p492
S'band'
p493
sS'wednesdays'
p494
S'wednesdays'
p495
sS'they'
p496
S'they'
p497
sS'@givemedatdanni'
p498
S'@givemedatdanni'
p499
sS'bank'
p500
S'bank'
p501
sS'heyyyy'
p502
S'hey'
p503
sS'@jm3bfam'
p504
S'@jm3bfam'
p505
sS'alex'
p506
S'alex'
p507
sS'tomorrowww'
p508
S'tomorrow'
p509
sS'readyy'
p510
S'ready'
p511
sS'l'
p512
g512
sS'holdin'
p513
S'holding'
p514
sS'ya'
p515
S'ya'
p516
sS'each'
p517
S'each'
p518
sS'went'
p519
S'went'
p520
sS'side'
p521
S'side'
p522
sS'carlos'
p523
S'carlos'
p524
sS'mean'
p525
S'mean'
p526
sS'tatts'
p527
S'tattoos'
p528
sS'snakes'
p529
S'snakes'
p530
sS'series'
p531
S'series'
p532
sS'turnin'
p533
S'turning'
p534
sS'allah'
p535
S'allah'
p536
sS'#gangster'
p537
S'#gangster'
p538
sS'tip'
p539
S'tip'
p540
sS'@intelxbeats'
p541
S'@intelxbeats'
p542
sS'doug'
p543
S'doug'
p544
sS'2day'
p545
S'today'
p546
sS'dawn'
p547
S'dawn'
p548
sS'saturday'
p549
S'saturday'
p550
sS'fxckin'
p551
S'fucking'
p552
sS'rt'
p553
S'rt'
p554
sS'gon'
p555
S'going'
p556
sS'rs'
p557
S'rs'
p558
sS'@swag_mcchilly'
p559
S'@swag_mcchilly'
p560
sS'god'
p561
S'god'
p562
sS'washed'
p563
S'washed'
p564
sS'@an2ony'
p565
S'@an2ony'
p566
sS'#heatchuuuuu'
p567
S'#heatchuuuuu'
p568
sS'@doktecoffee'
p569
S'@doktecoffee'
p570
sS'nite'
p571
S'night'
p572
sS'smh'
p573
S'somehow'
p574
sS'got'
p575
S'got'
p576
sS'foto'
p577
S'photo'
p578
sS'd-block'
p579
S'd-block'
p580
sS'puttn'
p581
S'putting'
p582
sS'barrier'
p583
S'barrier'
p584
sS"you're"
p585
S"you're"
p586
sS'nurtures'
p587
S'nurtures'
p588
sS'@mrsatysfaction'
p589
S'@mrsatysfaction'
p590
sS'free'
p591
S'free'
p592
sS'horray'
p593
S'hooray'
p594
sS'ntn'
p595
S'nothing'
p596
sS'isuperlovecodah'
p597
S'isuperlovecodah'
p598
sS'dissing'
p599
S'dissing'
p600
sS'favs'
p601
S'favorites'
p602
sS'brrr'
p603
S'brr'
p604
sS'ate'
p605
S'ate'
p606
sS'@stephyy77'
p607
S'@stephyy77'
p608
sS'recovering'
p609
S'recovering'
p610
sS'created'
p611
S'created'
p612
sS'starts'
p613
S'starts'
p614
sS'atl'
p615
S'atl'
p616
sS'days'
p617
S'days'
p618
sS'@brancojullian'
p619
S'@brancojullian'
p620
sS'ish'
p621
S'ish'
p622
sS'arrived'
p623
S'arrived'
p624
sS'shootin'
p625
S'shooting'
p626
sS'loud'
p627
S'loud'
p628
sS'fuckin'
p629
S'fucking'
p630
sS'purpose'
p631
S'purpose'
p632
sS"i'll"
p633
S"i'll"
p634
sS'already'
p635
S'already'
p636
sS'wass'
p637
S'was'
p638
sS'twitcause'
p639
S'twitcause'
p640
sS'@sashamarks13'
p641
S'@sashamarks13'
p642
sS'@toorealfortv'
p643
S'@toorealfortv'
p644
sS'another'
p645
S'another'
p646
sS'comin'
p647
S'coming'
p648
sS'thick'
p649
S'thick'
p650
sS'@misternrg'
p651
S'@misternrg'
p652
sS'@ibeliebingomez'
p653
S'@ibeliebingomez'
p654
sS'sweeeet'
p655
S'sweet'
p656
sS'lego'
p657
S'lego'
p658
sS'fucckitt'
p659
S'fucckitt'
p660
sS'top'
p661
S'top'
p662
sS'@fatalicja'
p663
S'@fatalicja'
p664
sS'girls'
p665
S'girls'
p666
sS'worlddd'
p667
S'world'
p668
sS'too'
p669
S'too'
p670
sS'hustlin'
p671
S'hustling'
p672
sS'tom'
p673
S'tom'
p674
sS'rockin'
p675
S'rocking'
p676
sS'hollywood'
p677
S'hollywood'
p678
sS'legs'
p679
S'legs'
p680
sS'@bluegrassbabe3'
p681
S'@bluegrassbabe3'
p682
sS'hows'
p683
S'hows'
p684
sS'took'
p685
S'took'
p686
sS'cdata'
p687
S'cdata'
p688
sS'goldson'
p689
S'goldson'
p690
sS'trippn'
p691
S'tripping'
p692
sS'shoulnt'
p693
S"shouldn't"
p694
sS'sun-baking'
p695
S'sun-baking'
p696
sS'foreevvvvverrr'
p697
S'forever'
p698
sS'@aliljuju_in_u'
p699
S'@aliljuju_in_u'
p700
sS'target'
p701
S'target'
p702
sS'#imagine'
p703
S'#imagine'
p704
sS'durin'
p705
S'durin'
p706
sS'ebay'
p707
S'ebay'
p708
sS'project'
p709
S'project'
p710
sS'matter'
p711
S'matter'
p712
sS'classes'
p713
S'classes'
p714
sS'feeling'
p715
S'feeling'
p716
sS'minus'
p717
S'minus'
p718
sS'donkey'
p719
S'donkey'
p720
sS'@britbrat0510'
p721
S'@britbrat0510'
p722
sS'mind'
p723
S'mind'
p724
sS'mine'
p725
S'mine'
p726
sS'theeee'
p727
S'the'
p728
sS'talking'
p729
S'talking'
p730
sS'bridgr'
p731
S'bridge'
p732
sS'seen'
p733
S'seen'
p734
sS'ohhhh'
p735
S'ohhhh'
p736
sS'mins'
p737
S'minutes'
p738
sS'chem'
p739
S'chemistry'
p740
sS'genuine'
p741
S'genuine'
p742
sS'flippin'
p743
S'flipping'
p744
sS'ewkkk'
p745
S'ewkkk'
p746
sS'@painted_birdie'
p747
S'@painted_birdie'
p748
sS'snow'
p749
S'snow'
p750
sS'chest'
p751
S'chest'
p752
sS'amusing'
p753
S'amusing'
p754
sS'@dcurrent'
p755
S'@dcurrent'
p756
sS'greatest'
p757
S'greatest'
p758
sS'@talented_shar'
p759
S'@talented_shar'
p760
sS'\xc2'
p761
g761
sS'though'
p762
S'though'
p763
sS'doooooooo'
p764
S'do'
p765
sS'@eskimo_joe_brrr'
p766
S'@eskimo_joe_brrr'
p767
sS'shyt'
p768
S'shit'
p769
sS'wasuupp'
p770
S'wasuupp'
p771
sS'ogs'
p772
S'ogs'
p773
sS'plenty'
p774
S'plenty'
p775
sS'u-tash'
p776
S'u-tash'
p777
sS'maria'
p778
S'maria'
p779
sS'webcam'
p780
S'webcam'
p781
sS'episode'
p782
S'episode'
p783
sS'@bruser1017'
p784
S'@bruser1017'
p785
sS'follback'
p786
S'follback'
p787
sS'#teamfollowback'
p788
S'#teamfollowback'
p789
sS'mixx'
p790
S'mix'
p791
sS'm'
p792
S'am'
p793
sS'screensaver'
p794
S'screensaver'
p795
sS'entertaining'
p796
S'entertaining'
p797
sS'came'
p798
S'came'
p799
sS'saying'
p800
S'saying'
p801
sS'rapture'
p802
S'rapture'
p803
sS'random'
p804
S'random'
p805
sS'@lalabossetbish'
p806
S'@lalabossetbish'
p807
sS'fucks'
p808
S'fucks'
p809
sS'pops'
p810
S'pops'
p811
sS'helping'
p812
S'helping'
p813
sS'http://tl.gd/6l13q8'
p814
S'http://tl.gd/6l13q8'
p815
sS'nighting'
p816
S'night'
p817
sS'nephew'
p818
S'nephew'
p819
sS'@u_kisseli'
p820
S'@u_kisseli'
p821
sS'probs'
p822
S'probably'
p823
sS'bain'
p824
S'bain'
p825
sS'crush'
p826
S'crush'
p827
sS"u'll"
p828
S"you'll"
p829
sS'givin'
p830
S'giving'
p831
sS'greenbay'
p832
S'greenbay'
p833
sS'implementation'
p834
S'implementation'
p835
sS'mdizz'
p836
S'mdizz'
p837
sS'explain'
p838
S'explain'
p839
sS'skye'
p840
S'skye'
p841
sS'such'
p842
S'such'
p843
sS'hrs'
p844
S'hours'
p845
sS'rich'
p846
S'rich'
p847
sS'folks'
p848
S'folks'
p849
sS'sooooooo'
p850
S'so'
p851
sS'themm'
p852
S'them'
p853
sS'population'
p854
S'population'
p855
sS'laptop'
p856
S'laptop'
p857
sS'do'
p858
S'do'
p859
sS'\xc3'
p860
g860
sS'@shackdd'
p861
S'@shackdd'
p862
sS'w\xe2'
p863
S'w\xe2'
p864
sS'loved'
p865
S'loved'
p866
sS'riwas'
p867
S'riwas'
p868
sS'watch'
p869
S'watch'
p870
sS'#love'
p871
S'#love'
p872
sS'da'
p873
S'the'
p874
sS'pocket'
p875
S'pocket'
p876
sS'12'
p877
S'12'
p878
sS'haunted'
p879
S'haunted'
p880
sS'dy'
p881
S'dye'
p882
sS'knocks'
p883
S'knocks'
p884
sS'ruderobb'
p885
S'ruderobb'
p886
sS'learned'
p887
S'learned'
p888
sS'yesssssss'
p889
S'yesssssss'
p890
sS'unfortunately'
p891
S'unfortunately'
p892
sS'@brown_sugababy'
p893
S'@brown_sugababy'
p894
sS'hall'
p895
S'hall'
p896
sS'bat'
p897
S'bat'
p898
sS'gareth'
p899
S'gareth'
p900
sS'@lifetimetv'
p901
S'@lifetimetv'
p902
sS'ammmmmazing'
p903
S'amazing'
p904
sS'http://bit.ly/ddsstf'
p905
S'http://bit.ly/ddsstf'
p906
sS'shape'
p907
S'shape'
p908
sS'guns'
p909
S'guns'
p910
sS'illegitimate'
p911
S'illegitimate'
p912
sS'19'
p913
S'19'
p914
sS'bad'
p915
S'bad'
p916
sS'ouuuttt'
p917
S'out'
p918
sS'@lemma_girl'
p919
S'@lemma_girl'
p920
sS'release'
p921
S'release'
p922
sS'thiknk'
p923
S'think'
p924
sS'bak'
p925
S'back'
p926
sS'respond'
p927
S'respond'
p928
sS'asddaaswqasfeqqa'
p929
S'asddaaswqasfeqqa'
p930
sS'leasing'
p931
S'leasing'
p932
sS'beg'
p933
S'beg'
p934
sS'goodnight'
p935
S'goodnight'
p936
sS'screen-ed'
p937
S'screen-ed'
p938
sS'o_o'
p939
S'o_o'
p940
sS'best'
p941
S'best'
p942
sS'brazil'
p943
S'brazil'
p944
sS'said'
p945
S'said'
p946
sS'draws'
p947
S'draws'
p948
sS'lots'
p949
S'lots'
p950
sS'away'
p951
S'away'
p952
sS'shaved'
p953
S'shaved'
p954
sS'grandmother'
p955
S'grandmother'
p956
sS"there's"
p957
S"there's"
p958
sS'irl'
p959
S'irl'
p960
sS'hopefully'
p961
S'hopefully'
p962
sS'moviiie'
p963
S'movie'
p964
sS'@hannahbanana_66'
p965
S'@hannahbanana_66'
p966
sS'muh'
p967
S'my'
p968
sS'#need'
p969
S'#need'
p970
sS'siging'
p971
S'singing'
p972
sS'we'
p973
S'we'
p974
sS'diiiiiirty'
p975
S'dirty'
p976
sS'omg'
p977
S'omg'
p978
sS'smelled'
p979
S'smelled'
p980
sS'weak'
p981
S'weak'
p982
sS'muthafucka'
p983
S'muthafucka'
p984
sS'wh'
p985
S'why'
p986
sS'nightmares'
p987
S'nightmares'
p988
sS'omq'
p989
S'omq'
p990
sS'omw'
p991
S'omw'
p992
sS'wear'
p993
S'wear'
p994
sS'wtf'
p995
S'wtf'
p996
sS'news'
p997
S'news'
p998
sS'packages'
p999
S'packages'
p1000
sS'wx'
p1001
S'weather'
p1002
sS'pity'
p1003
S'pity'
p1004
sS'#wwe'
p1005
S'#wwe'
p1006
sS'ill'
p1007
S'ill'
p1008
sS'coz'
p1009
S'because'
p1010
sS'ilh'
p1011
S'ilh'
p1012
sS'players'
p1013
S'players'
p1014
sS'games'
p1015
S'games'
p1016
sS'planned'
p1017
S'planned'
p1018
sS'lookin'
p1019
S'looking'
p1020
sS'faces'
p1021
S'faces'
p1022
sS'wateva'
p1023
S'whatever'
p1024
sS'login'
p1025
S'login'
p1026
sS'argue'
p1027
S'argue'
p1028
sS'com'
p1029
S'com'
p1030
sS'tough'
p1031
S'tough'
p1032
sS'@avant_tout'
p1033
S'@avant_tout'
p1034
sS'@bitalikeacop'
p1035
S'@bitalikeacop'
p1036
sS'qarbaqe'
p1037
S'garbage'
p1038
sS'i\xe2'
p1039
S'i\xe2'
p1040
sS'speak'
p1041
S'speak'
p1042
sS'petty'
p1043
S'petty'
p1044
sS'union'
p1045
S'union'
p1046
sS'belieber'
p1047
S'belieber'
p1048
sS'shout'
p1049
S'shout'
p1050
sS'frm'
p1051
S'from'
p1052
sS'.'
p1053
g1053
sS'oooooo'
p1054
S'oooooo'
p1055
sS'congradulations'
p1056
S'congratulations'
p1057
sS'much'
p1058
S'much'
p1059
sS'doood'
p1060
S'dude'
p1061
sS'tutorials'
p1062
S'tutorials'
p1063
sS'popusas'
p1064
S'popusas'
p1065
sS'website'
p1066
S'website'
p1067
sS'life'
p1068
S'life'
p1069
sS'crying'
p1070
S'crying'
p1071
sS'spit'
p1072
S'spit'
p1073
sS'drugs'
p1074
S'drugs'
p1075
sS'sunshine'
p1076
S'sunshine'
p1077
sS'sooooo'
p1078
S'so'
p1079
sS'buyin'
p1080
S'buying'
p1081
sS'haterz'
p1082
S'haters'
p1083
sS'@thetommydreamer'
p1084
S'@thetommydreamer'
p1085
sS'niigga'
p1086
S'nigger'
p1087
sS'areee'
p1088
S'are'
p1089
sS'child'
p1090
S'child'
p1091
sS'catch'
p1092
S'catch'
p1093
sS'rebeca'
p1094
S'rebeca'
p1095
sS'chill'
p1096
S'chill'
p1097
sS'#see'
p1098
S'#see'
p1099
sS'@realwizkhalifa'
p1100
S'@realwizkhalifa'
p1101
sS'save'
p1102
S'save'
p1103
sS'slp'
p1104
S'sleep'
p1105
sS'dieingg'
p1106
S'dying'
p1107
sS'air'
p1108
S'air'
p1109
sS'#blackandyellow'
p1110
S'#blackandyellow'
p1111
sS'ugly'
p1112
S'ugly'
p1113
sS'near'
p1114
S'near'
p1115
sS'ain'
p1116
S"ain't"
p1117
sS'aanjn6'
p1118
S'aanjn6'
p1119
sS'xx'
p1120
S'xx'
p1121
sS'voice'
p1122
S'voice'
p1123
sS'k'
p1124
g1124
sS'@strangejuggalo'
p1125
S'@strangejuggalo'
p1126
sS'@whobutarii'
p1127
S'@whobutarii'
p1128
sS'seven'
p1129
S'seven'
p1130
sS'cane'
p1131
S'cane'
p1132
sS'cont'
p1133
S'continued'
p1134
sS'@shes_prettypaid'
p1135
S'@shes_prettypaid'
p1136
sS'bio'
p1137
S'biology'
p1138
sS'cann'
p1139
S'can'
p1140
sS'honorable'
p1141
S'honorable'
p1142
sS'is'
p1143
S'is'
p1144
sS'it'
p1145
S'it'
p1146
sS'@andrea7t8'
p1147
S'@andrea7t8'
p1148
sS'ii'
p1149
S'I'
p1150
sS'player'
p1151
S'player'
p1152
sS'cant'
p1153
S'cant'
p1154
sS'im'
p1155
S"I'm"
p1156
sS'in'
p1157
S'in'
p1158
sS'ic'
p1159
S'ic'
p1160
sS'if'
p1161
S'if'
p1162
sS'itunes'
p1163
S'itunes'
p1164
sS'hong'
p1165
S'hong'
p1166
sS'perform'
p1167
S'perform'
p1168
sS'things'
p1169
S'things'
p1170
sS'make'
p1171
S'make'
p1172
sS'#handsdown'
p1173
S'#handsdown'
p1174
sS'dha'
p1175
S'the'
p1176
sS'tweetcaster'
p1177
S'tweetcaster'
p1178
sS'hahah'
p1179
S'hahah'
p1180
sS'babies'
p1181
S'babies'
p1182
sS'plates'
p1183
S'plates'
p1184
sS'shawty'
p1185
S'shawty'
p1186
sS'several'
p1187
S'several'
p1188
sS'bunny'
p1189
S'bunny'
p1190
sS'@smurfybfs'
p1191
S'@smurfybfs'
p1192
sS'hang'
p1193
S'hang'
p1194
sS'rain'
p1195
S'rain'
p1196
sS'hand'
p1197
S'hand'
p1198
sS'doin'
p1199
S'doing'
p1200
sS'i.'
p1201
S'i.'
p1202
sS'jealous'
p1203
S'jealous'
p1204
sS'thoughts'
p1205
S'thoughts'
p1206
sS'kid'
p1207
S'kid'
p1208
sS'kept'
p1209
S'kept'
p1210
sS'hopping'
p1211
S'hopping'
p1212
sS'thx'
p1213
S'thanks'
p1214
sS'#stfu'
p1215
S'#stfu'
p1216
sS'acknowledge'
p1217
S'acknowledge'
p1218
sS'tht'
p1219
S'that'
p1220
sS'confrims'
p1221
S'confirms'
p1222
sS'ocean'
p1223
S'ocean'
p1224
sS'tho'
p1225
S'tho'
p1226
sS'contact'
p1227
S'contact'
p1228
sS'animtion'
p1229
S'animation'
p1230
sS'the'
p1231
S'the'
p1232
sS'qoin'
p1233
S'going'
p1234
sS'tha'
p1235
S'the'
p1236
sS'left'
p1237
S'left'
p1238
sS'juss'
p1239
S'just'
p1240
sS'@pureserafina'
p1241
S'@pureserafina'
p1242
sS'just'
p1243
S'just'
p1244
sS'yea'
p1245
S'yea'
p1246
sS'able'
p1247
S'able'
p1248
sS'http://plixi.com/p/52769612'
p1249
S'http://plixi.com/p/52769612'
p1250
sS'sleepy'
p1251
S'sleepy'
p1252
sS'#ifollowback'
p1253
S'#ifollowback'
p1254
sS'assigned'
p1255
S'assigned'
p1256
sS'inportant'
p1257
S'important'
p1258
sS'@stu2075'
p1259
S'@stu2075'
p1260
sS'thanks'
p1261
S'thanks'
p1262
sS'human'
p1263
S'human'
p1264
sS'swears'
p1265
S'swears'
p1266
sS'yep'
p1267
S'yep'
p1268
sS'yes'
p1269
S'yes'
p1270
sS'yet'
p1271
S'yet'
p1272
sS'yew'
p1273
S'yew'
p1274
sS'secure'
p1275
S'secure'
p1276
sS'had'
p1277
S'had'
p1278
sS'@iitsmariia'
p1279
S'@iitsmariia'
p1280
sS'$50000'
p1281
S'$50000'
p1282
sS'thankin'
p1283
S'thinking'
p1284
sS'spread'
p1285
S'spread'
p1286
sS'has'
p1287
S'has'
p1288
sS'hav'
p1289
S'have'
p1290
sS'http://4ms.me/cdm7dq'
p1291
S'http://4ms.me/cdm7dq'
p1292
sS'@annedanmark'
p1293
S'@annedanmark'
p1294
sS'babes'
p1295
S'babes'
p1296
sS'@keepitso_g'
p1297
S'@keepitso_g'
p1298
sS'bastards'
p1299
S'bastards'
p1300
sS'birth'
p1301
S'birth'
p1302
sS'unique'
p1303
S'unique'
p1304
sS'mis'
p1305
S'miss'
p1306
sS'advanced'
p1307
S'advanced'
p1308
sS'#lieswomentell'
p1309
S'#lieswomentell'
p1310
sS'desire'
p1311
S'desire'
p1312
sS'bro'
p1313
S'brother'
p1314
sS'@dougieplatinum'
p1315
S'@dougieplatinum'
p1316
sS'gift'
p1317
S'gift'
p1318
sS'cooler'
p1319
S'cooler'
p1320
sS'orlando'
p1321
S'orlando'
p1322
sS'zoom'
p1323
S'zoom'
p1324
sS'#subtweetin'
p1325
S'#subtweetin'
p1326
sS'hotttt'
p1327
S'hot'
p1328
sS'night'
p1329
S'night'
p1330
sS'hung'
p1331
S'hung'
p1332
sS'glitters'
p1333
S'glitters'
p1334
sS'www'
p1335
S'www'
p1336
sS'right'
p1337
S'right'
p1338
sS'old'
p1339
S'old'
p1340
sS'spongebob'
p1341
S'spongebob'
p1342
sS'people'
p1343
S'people'
p1344
sS'@mrfortworth'
p1345
S'@mrfortworth'
p1346
sS'dead'
p1347
S'dead'
p1348
sS'neva'
p1349
S'neva'
p1350
sS'cleaaan'
p1351
S'clean'
p1352
sS'dear'
p1353
S'dear'
p1354
sS'leanin'
p1355
S'leaning'
p1356
sS'finna'
p1357
S'finna'
p1358
sS'righh'
p1359
S'right'
p1360
sS'l0l'
p1361
S'l0l'
p1362
sS'cnt'
p1363
S"can't"
p1364
sS'humor'
p1365
S'humor'
p1366
sS'#86'
p1367
S'#86'
p1368
sS'for'
p1369
S'for'
p1370
sS'everything'
p1371
S'everything'
p1372
sS'bra'
p1373
S'bra'
p1374
sS'umm'
p1375
S'um'
p1376
sS'@mje09'
p1377
S'@mje09'
p1378
sS'knew'
p1379
S'knew'
p1380
sS'pls'
p1381
S'please'
p1382
sS'@supitsglencoco'
p1383
S'@supitsglencoco'
p1384
sS'deleted'
p1385
S'deleted'
p1386
sS'@superboichris'
p1387
S'@superboichris'
p1388
sS'corn'
p1389
S'corn'
p1390
sS'burn'
p1391
S'burn'
p1392
sS'plz'
p1393
S'please'
p1394
sS'@jamelmel'
p1395
S'@jamelmel'
p1396
sS'@_jesusjackie'
p1397
S'@_jesusjackie'
p1398
sS'redberry'
p1399
S'redberry'
p1400
sS'#dead'
p1401
S'#dead'
p1402
sS'http://bit.ly/bnggxk'
p1403
S'http://bit.ly/bnggxk'
p1404
sS'losing'
p1405
S'losing'
p1406
sS'@alexandragates'
p1407
S'@alexandragates'
p1408
sS'@mikeqb6'
p1409
S'@mikeqb6'
p1410
sS'@cocoa_licious'
p1411
S'@cocoa_licious'
p1412
sS'_____'
p1413
S'_____'
p1414
sS'#palisades'
p1415
S'#palisades'
p1416
sS'months'
p1417
S'months'
p1418
sS'o'
p1419
g1419
sS'birdman'
p1420
S'birdman'
p1421
sS'dinner'
p1422
S'dinner'
p1423
sS'airline'
p1424
S'airline'
p1425
sS'plus'
p1426
S'plus'
p1427
sS'revelation'
p1428
S'revelation'
p1429
sS'islands'
p1430
S'islands'
p1431
sS"lil'goon"
p1432
S"lil'goon"
p1433
sS'tyrell'
p1434
S'tyrell'
p1435
sS'@shescreamincpg'
p1436
S'@shescreamincpg'
p1437
sS'prisoners'
p1438
S'prisoners'
p1439
sS'oneshot'
p1440
S'oneshot'
p1441
sS'soo'
p1442
S'so'
p1443
sS'ppl'
p1444
S'people'
p1445
sS'down'
p1446
S'down'
p1447
sS'freshman'
p1448
S'freshman'
p1449
sS'beings'
p1450
S'beings'
p1451
sS'@pmbnicole'
p1452
S'@pmbnicole'
p1453
sS'@princessjaylani'
p1454
S'@princessjaylani'
p1455
sS'#oneofmyfollowers'
p1456
S'#oneofmyfollowers'
p1457
sS'@jmurphyyybaby'
p1458
S'@jmurphyyybaby'
p1459
sS'deal'
p1460
S'deal'
p1461
sS'ahahaa'
p1462
S'ahahaa'
p1463
sS'class'
p1464
S'class'
p1465
sS'been'
p1466
S'been'
p1467
sS'wordpress'
p1468
S'wordpress'
p1469
sS'editor'
p1470
S'editor'
p1471
sS'way'
p1472
S'way'
p1473
sS'call'
p1474
S'call'
p1475
sS'wat'
p1476
S'what'
p1477
sS'was'
p1478
S'was'
p1479
sS'happy'
p1480
S'happy'
p1481
sS'head'
p1482
S'head'
p1483
sS'http://bit.ly/bxe0gz'
p1484
S'http://bit.ly/bxe0gz'
p1485
sS'form'
p1486
S'form'
p1487
sS'happen'
p1488
S'happen'
p1489
sS'becoming'
p1490
S'becoming'
p1491
sS'inmy'
p1492
S'inmy'
p1493
sS'hear'
p1494
S'hear'
p1495
sS'#songsiwillnevergettiredof'
p1496
S'#songsiwillnevergettiredof'
p1497
sS'true'
p1498
S'true'
p1499
sS'imprv'
p1500
S'improve'
p1501
sS'sumthings'
p1502
S'somethings'
p1503
sS'http://twittascope.com/?sign=6'
p1504
S'http://twittascope.com/?sign=6'
p1505
sS'@telmaadanielaa'
p1506
S'@telmaadanielaa'
p1507
sS'supp'
p1508
S'up'
p1509
sS'layin'
p1510
S'laying'
p1511
sS'until'
p1512
S'until'
p1513
sS'considered'
p1514
S'considered'
p1515
sS"brink's"
p1516
S"brink's"
p1517
sS'sides'
p1518
S'sides'
p1519
sS'emotional'
p1520
S'emotional'
p1521
sS'delete'
p1522
S'delete'
p1523
sS'@frank_chew'
p1524
S'@frank_chew'
p1525
sS'later'
p1526
S'later'
p1527
sS'classic'
p1528
S'classic'
p1529
sS'@845honey'
p1530
S'@845honey'
p1531
sS'sale'
p1532
S'sale'
p1533
sS'themwasthedays'
p1534
S'themwasthedays'
p1535
sS'fiiiine'
p1536
S'fine'
p1537
sS'@ifyouseekatietw'
p1538
S'@ifyouseekatietw'
p1539
sS'females'
p1540
S'females'
p1541
sS'awhile'
p1542
S'awhile'
p1543
sS'annoying'
p1544
S'annoying'
p1545
sS'trip'
p1546
S'trip'
p1547
sS'shit'
p1548
S'shit'
p1549
sS'ni'
p1550
S'ni'
p1551
sS'no'
p1552
S'no'
p1553
sS'nd'
p1554
S'nd'
p1555
sS'reality'
p1556
S'reality'
p1557
sS'til'
p1558
S'until'
p1559
sS'role'
p1560
S'role'
p1561
sS'skuurrrtin'
p1562
S'skirting'
p1563
sS'test'
p1564
S'test'
p1565
sS'nt'
p1566
S'not'
p1567
sS'roll'
p1568
S'roll'
p1569
sS'nw'
p1570
S'now'
p1571
sS'picture'
p1572
S'picture'
p1573
sS'@ilovemark_ai'
p1574
S'@ilovemark_ai'
p1575
sS'dier'
p1576
S'dier'
p1577
sS'harsh'
p1578
S'harsh'
p1579
sS'felt'
p1580
S'felt'
p1581
sS'rappers'
p1582
S'rappers'
p1583
sS'weekend'
p1584
S'weekend'
p1585
sS'#cosign'
p1586
S'#cosign'
p1587
sS'nxt'
p1588
S'next'
p1589
sS'knoee'
p1590
S'know'
p1591
sS'http://bit.ly/bnji09'
p1592
S'http://bit.ly/bnji09'
p1593
sS'sendin'
p1594
S'sending'
p1595
sS'beds'
p1596
S'beds'
p1597
sS'bball'
p1598
S'ball'
p1599
sS'cheater'
p1600
S'cheater'
p1601
sS'time'
p1602
S'time'
p1603
sS'stick'
p1604
S'stick'
p1605
sS'osx'
p1606
S'osx'
p1607
sS'chain'
p1608
S'chain'
p1609
sS'themed'
p1610
S'themed'
p1611
sS'roc'
p1612
S'roc'
p1613
sS'@osocrissy'
p1614
S'@osocrissy'
p1615
sS'focus'
p1616
S'focus'
p1617
sS'#badcombo'
p1618
S'#badcombo'
p1619
sS'wasstheedeaal'
p1620
S'wasstheedeaal'
p1621
sS'skin'
p1622
S'skin'
p1623
sS'battle'
p1624
S'battle'
p1625
sS'muppet'
p1626
S'muppet'
p1627
sS'@disneylandlive'
p1628
S'@disneylandlive'
p1629
sS'suicide'
p1630
S'suicide'
p1631
sS'@foreverkyra'
p1632
S'@foreverkyra'
p1633
sS'father'
p1634
S'father'
p1635
sS'brinks'
p1636
S'brinks'
p1637
sS'countdown'
p1638
S'countdown'
p1639
sS'0'
p1640
g1640
sS'finally'
p1641
S'finally'
p1642
sS'gigi'
p1643
S'gigi'
p1644
sS'achou'
p1645
S'achou'
p1646
sS'supplies'
p1647
S'supplies'
p1648
sS"a's"
p1649
S"a's"
p1650
sS'shoot'
p1651
S'shoot'
p1652
sS'hannah'
p1653
S'hannah'
p1654
sS'olympus'
p1655
S'olympus'
p1656
sS'ma'
p1657
S'ma'
p1658
sS'w00t'
p1659
S'w00t'
p1660
sS'minute'
p1661
S'minute'
p1662
sS'room'
p1663
S'room'
p1664
sS'gatta'
p1665
S'gotta'
p1666
sS'dating'
p1667
S'dating'
p1668
sS'clouds'
p1669
S'clouds'
p1670
sS'gud'
p1671
S'good'
p1672
sS'did'
p1673
S'did'
p1674
sS'turns'
p1675
S'turns'
p1676
sS's0ngg'
p1677
S'song'
p1678
sS'gun'
p1679
S'gun'
p1680
sS'leave'
p1681
S'leave'
p1682
sS'p'
p1683
g1683
sS'soooo'
p1684
S'so'
p1685
sS'team'
p1686
S'team'
p1687
sS'quick'
p1688
S'quick'
p1689
sS'guy'
p1690
S'guy'
p1691
sS'yall'
p1692
S'you'
p1693
sS'dis'
p1694
S'dis'
p1695
sS'says'
p1696
S'says'
p1697
sS'd'
p1698
g1698
sS'____'
p1699
S'____'
p1700
sS'shakes'
p1701
S'shakes'
p1702
sS'shulda'
p1703
S"should've"
p1704
sS'@artieka'
p1705
S'@artieka'
p1706
sS'@moritherapy'
p1707
S'@moritherapy'
p1708
sS'movies'
p1709
S'movies'
p1710
sS'feat'
p1711
S'feat'
p1712
sS'@rizkiides'
p1713
S'@rizkiides'
p1714
sS'uniform'
p1715
S'uniform'
p1716
sS'current'
p1717
S'current'
p1718
sS'goes'
p1719
S'goes'
p1720
sS'reply'
p1721
S'reply'
p1722
sS'aint'
p1723
S"ain't"
p1724
sS'http://tinyurl.com/3xf6cto'
p1725
S'http://tinyurl.com/3xf6cto'
p1726
sS'@fourpagesasha_'
p1727
S'@fourpagesasha_'
p1728
sS'clerk'
p1729
S'clerk'
p1730
sS'makeup'
p1731
S'makeup'
p1732
sS'ridin'
p1733
S'riding'
p1734
sS'water'
p1735
S'water'
p1736
sS'downloaded'
p1737
S'downloaded'
p1738
sS'@its_saruh'
p1739
S'@its_saruh'
p1740
sS'#unspokenrule'
p1741
S'#unspokenrule'
p1742
sS'alone'
p1743
S'alone'
p1744
sS'['
p1745
g1745
sS'wasss'
p1746
S'was'
p1747
sS'coochie'
p1748
S'coochie'
p1749
sS'change'
p1750
S'change'
p1751
sS'wait'
p1752
S'wait'
p1753
sS'box'
p1754
S'box'
p1755
sS'boy'
p1756
S'boy'
p1757
sS'hbo'
p1758
S'hbo'
p1759
sS'bot'
p1760
S'bot'
p1761
sS'boi'
p1762
S'boy'
p1763
sS'weird'
p1764
S'weird'
p1765
sS'lmfaoooo'
p1766
S'lmfaoooo'
p1767
sS'love'
p1768
S'love'
p1769
sS'@neenuh30'
p1770
S'@neenuh30'
p1771
sS'extra'
p1772
S'extra'
p1773
sS'@feira471'
p1774
S'@feira471'
p1775
sS'http://yoono.com/j_gm1cad'
p1776
S'http://yoono.com/j_gm1cad'
p1777
sS'@juliagoerges'
p1778
S'@juliagoerges'
p1779
sS'fake'
p1780
S'fake'
p1781
sS'blck'
p1782
S'black'
p1783
sS'@that_ghoul_ava'
p1784
S'@that_ghoul_ava'
p1785
sS'#moneyaddictgang'
p1786
S'#moneyaddictgang'
p1787
sS'market'
p1788
S'market'
p1789
sS'everybody'
p1790
S'everybody'
p1791
sS'buttons'
p1792
S'buttons'
p1793
sS'ayo'
p1794
S'ayo'
p1795
sS'#bragrights'
p1796
S'#bragrights'
p1797
sS'working'
p1798
S'working'
p1799
sS'aye'
p1800
S'aye'
p1801
sS'positive'
p1802
S'positive'
p1803
sS'dude'
p1804
S'dude'
p1805
sS'cutee'
p1806
S'cutee'
p1807
sS'live'
p1808
S'live'
p1809
sS'iphone'
p1810
S'iphone'
p1811
sS'@handsomewillie'
p1812
S'@handsomewillie'
p1813
sS'criteria'
p1814
S'criteria'
p1815
sS'msg'
p1816
S'message'
p1817
sS'thru'
p1818
S'thru'
p1819
sS'prep'
p1820
S'prep'
p1821
sS'today'
p1822
S'today'
p1823
sS'kashuk'
p1824
S'kashuk'
p1825
sS'@ky_zen'
p1826
S'@ky_zen'
p1827
sS'@pr3ttyliltaurus'
p1828
S'@pr3ttyliltaurus'
p1829
sS'club'
p1830
S'club'
p1831
sS"a'lasia"
p1832
S"a'lasia"
p1833
sS'clue'
p1834
S'clue'
p1835
sS'@djhypeking'
p1836
S'@djhypeking'
p1837
sS'@qianam'
p1838
S'@qianam'
p1839
sS'ignorant'
p1840
S'ignorant'
p1841
sS'@beyondtwotrees'
p1842
S'@beyondtwotrees'
p1843
sS'caz'
p1844
S'because'
p1845
sS'nasalness'
p1846
S'nasalness'
p1847
sS'douche'
p1848
S'douche'
p1849
sS'wouldnt'
p1850
S"wouldn't"
p1851
sS'niggas'
p1852
S'niggas'
p1853
sS'car'
p1854
S'car'
p1855
sS'preciate'
p1856
S'appreciate'
p1857
sS'ibe'
p1858
S"I'm"
p1859
sS'niggaz'
p1860
S'niggers'
p1861
sS'hardest'
p1862
S'hardest'
p1863
sS'can'
p1864
S'can'
p1865
sS'cam'
p1866
S'cam'
p1867
sS'@amaziinqlybadd'
p1868
S'@amaziinqlybadd'
p1869
sS'http://tl.gd/6l13mp'
p1870
S'http://tl.gd/6l13mp'
p1871
sS'making'
p1872
S'making'
p1873
sS'heart'
p1874
S'heart'
p1875
sS'crazy'
p1876
S'crazy'
p1877
sS'@phoebe_qutegurl'
p1878
S'@phoebe_qutegurl'
p1879
sS'@justtheebaddest'
p1880
S'@justtheebaddest'
p1881
sS'awesome'
p1882
S'awesome'
p1883
sS"didn't"
p1884
S"didn't"
p1885
sS'fuck'
p1886
S'fuck'
p1887
sS'heard'
p1888
S'heard'
p1889
sS'crazi'
p1890
S'crazy'
p1891
sS'chaturti'
p1892
S'chaturti'
p1893
sS'chic'
p1894
S'chic'
p1895
sS'spc'
p1896
S'spc'
p1897
sS'stole'
p1898
S'stole'
p1899
sS'#boredthenabitch'
p1900
S'#boredthenabitch'
p1901
sS'pervs'
p1902
S'perverts'
p1903
sS'discussion'
p1904
S'discussion'
p1905
sS'watching'
p1906
S'watching'
p1907
sS'#growup'
p1908
S'#growup'
p1909
sS'@loveskyyy'
p1910
S'@loveskyyy'
p1911
sS'1'
p1912
g1912
sS'till'
p1913
S'till'
p1914
sS'sunday'
p1915
S'sunday'
p1916
sS's.'
p1917
S's.'
p1918
sS'@quique07'
p1919
S'@quique07'
p1920
sS'accessories'
p1921
S'accessories'
p1922
sS'nya'
p1923
S'nya'
p1924
sS'pint'
p1925
S'pint'
p1926
sS'staying'
p1927
S'staying'
p1928
sS'leavin'
p1929
S'leaving'
p1930
sS'information'
p1931
S'information'
p1932
sS'may'
p1933
S'may'
p1934
sS'@xtinafan4life92'
p1935
S'@xtinafan4life92'
p1936
sS'dats'
p1937
S"that's"
p1938
sS'mac'
p1939
S'mac'
p1940
sS'birthday'
p1941
S'birthday'
p1942
sS'tonite'
p1943
S'tonight'
p1944
sS'mad'
p1945
S'mad'
p1946
sS'mocks'
p1947
S'mocks'
p1948
sS'mah'
p1949
S'my'
p1950
sS'suck'
p1951
S'suck'
p1952
sS'guys'
p1953
S'guys'
p1954
sS'grow'
p1955
S'grow'
p1956
sS'man'
p1957
S'man'
p1958
sS'fckn'
p1959
S'fucking'
p1960
sS'natural'
p1961
S'natural'
p1962
sS'remember'
p1963
S'remember'
p1964
sS'whenever'
p1965
S'whenever'
p1966
sS'maybe'
p1967
S'maybe'
p1968
sS'rollin'
p1969
S'rolling'
p1970
sS'ghe'
p1971
S'the'
p1972
sS'switch'
p1973
S'switch'
p1974
sS'so'
p1975
S'so'
p1976
sS'talk'
p1977
S'talk'
p1978
sS'sd'
p1979
S'sd'
p1980
sS'refund'
p1981
S'refund'
p1982
sS'@rosebeliebs'
p1983
S'@rosebeliebs'
p1984
sS'tty'
p1985
S'tty'
p1986
sS'pipe'
p1987
S'pipe'
p1988
sS'@mjcharleston'
p1989
S'@mjcharleston'
p1990
sS'http://twitpic.com/30jra8'
p1991
S'http://twitpic.com/30jra8'
p1992
sS'kong'
p1993
S'kong'
p1994
sS'course'
p1995
S'course'
p1996
sS'http://tl.gd/6l135t'
p1997
S'http://tl.gd/6l135t'
p1998
sS'shake'
p1999
S'shake'
p2000
sS'kanye'
p2001
S'kanye'
p2002
sS'tavia'
p2003
S'tavia'
p2004
sS'still'
p2005
S'still'
p2006
sS'@missxcynthiax'
p2007
S'@missxcynthiax'
p2008
sS'kacee'
p2009
S'kacee'
p2010
sS'thank'
p2011
S'thank'
p2012
sS'gtg'
p2013
S'gtg'
p2014
sS'tomoroe'
p2015
S'tomorrow'
p2016
sS'enjing'
p2017
S'enjing'
p2018
sS'weddinqq'
p2019
S'wedding'
p2020
sS'sexiest'
p2021
S'sexiest'
p2022
sS'hot'
p2023
S'hot'
p2024
sS"he'd"
p2025
S"he'd"
p2026
sS'window'
p2027
S'window'
p2028
sS'according'
p2029
S'according'
p2030
sS'ahh'
p2031
S'ah'
p2032
sS'thanx'
p2033
S'thanks'
p2034
sS'tweets'
p2035
S'tweets'
p2036
sS'into'
p2037
S'into'
p2038
sS'happened'
p2039
S'happened'
p2040
sS'noo'
p2041
S'no'
p2042
sS'soemthing'
p2043
S'something'
p2044
sS'chlorox'
p2045
S'chlorox'
p2046
sS'@forevercvixxxen'
p2047
S'@forevercvixxxen'
p2048
sS'noe'
p2049
S'noe'
p2050
sS'viewprofile'
p2051
S'viewprofile'
p2052
sS'introduce'
p2053
S'introduce'
p2054
sS'#footballwives'
p2055
S'#footballwives'
p2056
sS'answer'
p2057
S'answer'
p2058
sS'adrenaline'
p2059
S'adrenaline'
p2060
sS'half'
p2061
S'half'
p2062
sS'dingleberry'
p2063
S'dingleberry'
p2064
sS'nov'
p2065
S'nov'
p2066
sS'now'
p2067
S'now'
p2068
sS'provision'
p2069
S'provision'
p2070
sS'bullshit'
p2071
S'bullshit'
p2072
sS'handiwork'
p2073
S'handiwork'
p2074
sS'wont'
p2075
S'wont'
p2076
sS'name'
p2077
S'name'
p2078
sS'@beyondglam0r0us'
p2079
S'@beyondglam0r0us'
p2080
sS'usss'
p2081
S'us'
p2082
sS'bowling'
p2083
S'bowling'
p2084
sS'@tenfourten'
p2085
S'@tenfourten'
p2086
sS'em'
p2087
S'em'
p2088
sS'el'
p2089
S'el'
p2090
sS'pimped'
p2091
S'pimped'
p2092
sS'skipday'
p2093
S'skipday'
p2094
sS'ee'
p2095
S'he'
p2096
sS'thuggish'
p2097
S'thuggish'
p2098
sS'kimmy'
p2099
S'kimmy'
p2100
sS'yeah'
p2101
S'yeah'
p2102
sS'cumin'
p2103
S'cumin'
p2104
sS'makeing'
p2105
S'making'
p2106
sS'catching'
p2107
S'catching'
p2108
sS'ey'
p2109
S'ey'
p2110
sS'7letters'
p2111
S'7letters'
p2112
sS'signage'
p2113
S'signage'
p2114
sS'girl'
p2115
S'girl'
p2116
sS'tried'
p2117
S'tried'
p2118
sS'album'
p2119
S'album'
p2120
sS'living'
p2121
S'living'
p2122
sS'referng'
p2123
S'referring'
p2124
sS'mess'
p2125
S'mess'
p2126
sS'seriously'
p2127
S'seriously'
p2128
sS"shouldn't"
p2129
S"shouldn't"
p2130
sS'hacked'
p2131
S'hacked'
p2132
sS'shows'
p2133
S'shows'
p2134
sS'jacking'
p2135
S'jacking'
p2136
sS'exactly'
p2137
S'exactly'
p2138
sS'smfh'
p2139
S'smfh'
p2140
sS'monster'
p2141
S'monster'
p2142
sS'laycool'
p2143
S'laycool'
p2144
sS'gota'
p2145
S'gotta'
p2146
sS'chrizzii'
p2147
S'chrizzii'
p2148
sS'rly'
p2149
S'really'
p2150
sS'@markcurrybook'
p2151
S'@markcurrybook'
p2152
sS'___'
p2153
S'___'
p2154
sS'card'
p2155
S'card'
p2156
sS'rikers'
p2157
S'rikers'
p2158
sS'@rabbitliphan'
p2159
S'@rabbitliphan'
p2160
sS'yup'
p2161
S'yup'
p2162
sS'coulda'
p2163
S'could'
p2164
sS'@extremelyavg'
p2165
S'@extremelyavg'
p2166
sS'turn'
p2167
S'turn'
p2168
sS'place'
p2169
S'place'
p2170
sS'swing'
p2171
S'swing'
p2172
sS'nonprofit'
p2173
S'nonprofit'
p2174
sS'draggin'
p2175
S'dragging'
p2176
sS'yess'
p2177
S'yes'
p2178
sS'think'
p2179
S'think'
p2180
sS'blood'
p2181
S'blood'
p2182
sS'cheese'
p2183
S'cheese'
p2184
sS'xi'
p2185
S'xi'
p2186
sS'stumbleupon'
p2187
S'stumbleupon'
p2188
sS'flirtin'
p2189
S'flirting'
p2190
sS'xd'
p2191
S'xd'
p2192
sS'one'
p2193
S'one'
p2194
sS'hmwrk'
p2195
S'homework'
p2196
sS'ballmer'
p2197
S'ballmer'
p2198
sS'#src'
p2199
S'#src'
p2200
sS'fast'
p2201
S'fast'
p2202
sS'fi'
p2203
S'fi'
p2204
sS'carry'
p2205
S'carry'
p2206
sS'sounds'
p2207
S'sounds'
p2208
sS'fight'
p2209
S'fight'
p2210
sS'open'
p2211
S'open'
p2212
sS'tomorrow'
p2213
S'tomorrow'
p2214
sS'cris'
p2215
S'cris'
p2216
sS'iam'
p2217
S'iam'
p2218
sS'city'
p2219
S'city'
p2220
sS'little'
p2221
S'little'
p2222
sS'http://tl.gd/6l13nn'
p2223
S'http://tl.gd/6l13nn'
p2224
sS'checked'
p2225
S'checked'
p2226
sS'3mths'
p2227
S'3mths'
p2228
sS'anyone'
p2229
S'anyone'
p2230
sS'2'
p2231
S'to'
p2232
sS'typing'
p2233
S'typing'
p2234
sS'white'
p2235
S'white'
p2236
sS'@nickxjones'
p2237
S'@nickxjones'
p2238
sS'west'
p2239
S'west'
p2240
sS'friend'
p2241
S'friend'
p2242
sS'gives'
p2243
S'gives'
p2244
sS'interveiw'
p2245
S'interview'
p2246
sS'@mystih'
p2247
S'@mystih'
p2248
sS'that'
p2249
S'that'
p2250
sS'shawn'
p2251
S'shawn'
p2252
sS'hun'
p2253
S'hun'
p2254
sS'huh'
p2255
S'huh'
p2256
sS'@biebzzismydrug'
p2257
S'@biebzzismydrug'
p2258
sS'@babynueve'
p2259
S'@babynueve'
p2260
sS'thaa'
p2261
S'that'
p2262
sS'@justinfoster92'
p2263
S'@justinfoster92'
p2264
sS'butt'
p2265
S'butt'
p2266
sS'than'
p2267
S'than'
p2268
sS"here's"
p2269
S"here's"
p2270
sS'boyfriend'
p2271
S'boyfriend'
p2272
sS'11'
p2273
S'11'
p2274
sS'10'
p2275
S'10'
p2276
sS'television'
p2277
S'television'
p2278
sS'bored'
p2279
S'bored'
p2280
sS'15'
p2281
S'15'
p2282
sS'14'
p2283
S'14'
p2284
sS'depressed'
p2285
S'depressed'
p2286
sS'gotta'
p2287
S'gotta'
p2288
sS'karate'
p2289
S'karate'
p2290
sS'r'
p2291
S'are'
p2292
sS'were'
p2293
S'were'
p2294
sS'bwahahaha'
p2295
S'bwahahaha'
p2296
sS'anyways'
p2297
S'anyways'
p2298
sS'and'
p2299
S'and'
p2300
sS'thamizh'
p2301
S'thamizh'
p2302
sS'lick'
p2303
S'lick'
p2304
sS'bberry'
p2305
S'blackberry'
p2306
sS'san'
p2307
S'san'
p2308
sS'wknd'
p2309
S'weekend'
p2310
sS'occupies'
p2311
S'occupies'
p2312
sS'@cassiedidycz'
p2313
S'@cassiedidycz'
p2314
sS'sad'
p2315
S'sad'
p2316
sS'say'
p2317
S'say'
p2318
sS'rent'
p2319
S'rent'
p2320
sS'pisces'
p2321
S'pisces'
p2322
sS'breakfast'
p2323
S'breakfast'
p2324
sS'saw'
p2325
S'saw'
p2326
sS'any'
p2327
S'any'
p2328
sS'superman'
p2329
S'superman'
p2330
sS'kush'
p2331
S'kush'
p2332
sS'offering'
p2333
S'offering'
p2334
sS'@needay_nov18th'
p2335
S'@needay_nov18th'
p2336
sS'@5starfelix'
p2337
S'@5starfelix'
p2338
sS'eing'
p2339
S'being'
p2340
sS'omfg'
p2341
S'omfg'
p2342
sS'@meechy_babyy'
p2343
S'@meechy_babyy'
p2344
sS'take'
p2345
S'take'
p2346
sS'online'
p2347
S'online'
p2348
sS'performance'
p2349
S'performance'
p2350
sS'pranks'
p2351
S'pranks'
p2352
sS'@chynamonroe'
p2353
S'@chynamonroe'
p2354
sS'sure'
p2355
S'sure'
p2356
sS'pain'
p2357
S'pain'
p2358
sS'wooow'
p2359
S'wooow'
p2360
sS'normal'
p2361
S'normal'
p2362
sS'arguing'
p2363
S'arguing'
p2364
sS'@godjcoolaid'
p2365
S'@godjcoolaid'
p2366
sS"showtime's"
p2367
S"showtime's"
p2368
sS"mini's"
p2369
S"mini's"
p2370
sS'hilirious'
p2371
S'hilarious'
p2372
sS'#illbeback'
p2373
S'#illbeback'
p2374
sS'baymoet'
p2375
S'baymoet'
p2376
sS'beta'
p2377
S'beta'
p2378
sS'comingg'
p2379
S'coming'
p2380
sS'pair'
p2381
S'pair'
p2382
sS'fck'
p2383
S'fuck'
p2384
sS']'
p2385
g2385
sS'panocha'
p2386
S'panocha'
p2387
sS'cc'
p2388
S'cc'
p2389
sS'forever'
p2390
S'forever'
p2391
sS'especially'
p2392
S'especially'
p2393
sS'lawd'
p2394
S'lord'
p2395
sS'proud'
p2396
S'proud'
p2397
sS'@crystina'
p2398
S'@crystina'
p2399
sS'hungry'
p2400
S'hungry'
p2401
sS'wind'
p2402
S'wind'
p2403
sS'#bornthisway'
p2404
S'#bornthisway'
p2405
sS'@i_speaak'
p2406
S'@i_speaak'
p2407
sS'#crazy'
p2408
S'#crazy'
p2409
sS'walking'
p2410
S'walking'
p2411
sS'qot'
p2412
S'got'
p2413
sS'show'
p2414
S'show'
p2415
sS'cheat'
p2416
S'cheat'
p2417
sS'cheap'
p2418
S'cheap'
p2419
sS'@dsimmons90'
p2420
S'@dsimmons90'
p2421
sS'bright'
p2422
S'bright'
p2423
sS'@tiishaduhh'
p2424
S'@tiishaduhh'
p2425
sS'saiid'
p2426
S'said'
p2427
sS'slot'
p2428
S'slot'
p2429
sS'slow'
p2430
S'slow'
p2431
sS'#correction'
p2432
S'#correction'
p2433
sS'title'
p2434
S'title'
p2435
sS'dick'
p2436
S'dick'
p2437
sS'enough'
p2438
S'enough'
p2439
sS'fluid'
p2440
S'fluid'
p2441
sS'either'
p2442
S'either'
p2443
sS'only'
p2444
S'only'
p2445
sS'going'
p2446
S'going'
p2447
sS'black'
p2448
S'black'
p2449
sS'wooo'
p2450
S'wooo'
p2451
sS'robe'
p2452
S'robe'
p2453
sS'@sachin_rt'
p2454
S'@sachin_rt'
p2455
sS'pumpkin'
p2456
S'pumpkin'
p2457
sS"2's"
p2458
S"2's"
p2459
sS'get'
p2460
S'get'
p2461
sS'diamonds'
p2462
S'diamonds'
p2463
sS'define'
p2464
S'define'
p2465
sS'cannot'
p2466
S'cannot'
p2467
sS'stroll'
p2468
S'stroll'
p2469
sS'freaking'
p2470
S'freaking'
p2471
sS'worrien'
p2472
S'worrying'
p2473
sS'artist'
p2474
S'artist'
p2475
sS'@anthoniisfly'
p2476
S'@anthoniisfly'
p2477
sS'@edwardstiger1'
p2478
S'@edwardstiger1'
p2479
sS'logan'
p2480
S'logan'
p2481
sS'morning'
p2482
S'morning'
p2483
sS'ahit'
p2484
S'ahit'
p2485
sS'stupid'
p2486
S'stupid'
p2487
sS'nuhun'
p2488
S'nuhun'
p2489
sS'@mamicollins'
p2490
S'@mamicollins'
p2491
sS'dough'
p2492
S'dough'
p2493
sS'finishing'
p2494
S'finishing'
p2495
sS'where'
p2496
S'where'
p2497
sS'inside'
p2498
S'inside'
p2499
sS"y'all"
p2500
S"y'all"
p2501
sS'@katiete'
p2502
S'@katiete'
p2503
sS'@butta_cakes'
p2504
S'@butta_cakes'
p2505
sS'welcome'
p2506
S'welcome'
p2507
sS'asleep'
p2508
S'asleep'
p2509
sS'sean'
p2510
S'sean'
p2511
sS'hoes'
p2512
S'hoes'
p2513
sS'#2'
p2514
S'#2'
p2515
sS'#7'
p2516
S'#7'
p2517
sS'mcdonalds'
p2518
S'mcdonalds'
p2519
sS'wonder'
p2520
S'wonder'
p2521
sS'planet'
p2522
S'planet'
p2523
sS'@qweisymachino'
p2524
S'@qweisymachino'
p2525
sS'natsha'
p2526
S'natsha'
p2527
sS'@missv2u'
p2528
S'@missv2u'
p2529
sS'mortgage'
p2530
S'mortgage'
p2531
sS'suckss'
p2532
S'success'
p2533
sS'@savagetrackz'
p2534
S'@savagetrackz'
p2535
sS'thurr'
p2536
S'through'
p2537
sS'mags'
p2538
S'mags'
p2539
sS'3'
p2540
g2540
sS'between'
p2541
S'between'
p2542
sS'decks'
p2543
S'decks'
p2544
sS'#epicfail'
p2545
S'#epicfail'
p2546
sS'kool'
p2547
S'cool'
p2548
sS'tuu'
p2549
S'to'
p2550
sS'killing'
p2551
S'killing'
p2552
sS'guitar'
p2553
S'guitar'
p2554
sS'@taylorswiftscoo'
p2555
S'@taylorswiftscoo'
p2556
sS'jk'
p2557
S'jk'
p2558
sS'article'
p2559
S'article'
p2560
sS'comb'
p2561
S'comb'
p2562
sS'come'
p2563
S'come'
p2564
sS'interestin'
p2565
S'interesting'
p2566
sS'jb'
p2567
S'jb'
p2568
sS'tuh'
p2569
S'to'
p2570
sS'dates'
p2571
S'dates'
p2572
sS'mone'
p2573
S'mone'
p2574
sS'many'
p2575
S'many'
p2576
sS'voicemail'
p2577
S'voicemail'
p2578
sS'berra'
p2579
S'berra'
p2580
sS'@vivianables'
p2581
S'@vivianables'
p2582
sS's'
p2583
g2583
sS'faar'
p2584
S'far'
p2585
sS'auri'
p2586
S'auri'
p2587
sS'@csaav001'
p2588
S'@csaav001'
p2589
sS'among'
p2590
S'among'
p2591
sS'alll'
p2592
S'all'
p2593
sS'madness'
p2594
S'madness'
p2595
sS'cancer'
p2596
S'cancer'
p2597
sS'twit'
p2598
S'twit'
p2599
sS'hve'
p2600
S'have'
p2601
sS'pop'
p2602
S'pop'
p2603
sS'nooooo'
p2604
S'no'
p2605
sS'http://yfrog.com/8dk6hdj'
p2606
S'http://yfrog.com/8dk6hdj'
p2607
sS'@patgillett'
p2608
S'@patgillett'
p2609
sS'@imthefuxkinbest'
p2610
S'@imthefuxkinbest'
p2611
sS'@vivalavee'
p2612
S'@vivalavee'
p2613
sS'@welll_damnn'
p2614
S'@welll_damnn'
p2615
sS'howard'
p2616
S'howard'
p2617
sS'jerkk'
p2618
S'jerk'
p2619
sS'sam\xe2'
p2620
S'sam\xe2'
p2621
sS'ja'
p2622
S'ja'
p2623
sS'breath'
p2624
S'breath'
p2625
sS'lmao'
p2626
S'lmao'
p2627
sS'sesh'
p2628
S'session'
p2629
sS'featuring'
p2630
S'featuring'
p2631
sS'wants'
p2632
S'wants'
p2633
sS'shopping'
p2634
S'shopping'
p2635
sS'parkin'
p2636
S'parking'
p2637
sS'shoutout'
p2638
S'shoutout'
p2639
sS'frankperisis1'
p2640
S'frankperisis1'
p2641
sS'waka'
p2642
S'waka'
p2643
sS'photos'
p2644
S'photos'
p2645
sS'wake'
p2646
S'wake'
p2647
sS'utube'
p2648
S'youtube'
p2649
sS'ruby'
p2650
S'ruby'
p2651
sS'squirrels'
p2652
S'squirrels'
p2653
sS'those'
p2654
S'those'
p2655
sS'^'
p2656
g2656
sS'paying'
p2657
S'paying'
p2658
sS'http://twitpic.com/30jr9y'
p2659
S'http://twitpic.com/30jr9y'
p2660
sS'@missmelodyyyyy'
p2661
S'@missmelodyyyyy'
p2662
sS'these'
p2663
S'these'
p2664
sS'lolss'
p2665
S'lolss'
p2666
sS'cure'
p2667
S'cure'
p2668
sS'partyin'
p2669
S'partying'
p2670
sS'joke'
p2671
S'joke'
p2672
sS'pushin'
p2673
S'pushing'
p2674
sS'vest'
p2675
S'vest'
p2676
sS'janele'
p2677
S'janele'
p2678
sS'eventually'
p2679
S'eventually'
p2680
sS'#siamkempinski'
p2681
S'#siamkempinski'
p2682
sS'@bonitaapple_bom'
p2683
S'@bonitaapple_bom'
p2684
sS'sleeping'
p2685
S'sleeping'
p2686
sS'good'
p2687
S'good'
p2688
sS'edcation'
p2689
S'education'
p2690
sS'@roberts_rules'
p2691
S'@roberts_rules'
p2692
sS'heels'
p2693
S'heels'
p2694
sS'everyday'
p2695
S'everyday'
p2696
sS'worry'
p2697
S'worry'
p2698
sS'@atoandrews'
p2699
S'@atoandrews'
p2700
sS'pap'
p2701
S'pap'
p2702
sS'bags'
p2703
S'bags'
p2704
sS'different'
p2705
S'different'
p2706
sS'reeses'
p2707
S'reeses'
p2708
sS'@bigboyslimeoww'
p2709
S'@bigboyslimeoww'
p2710
sS'thinkin'
p2711
S'thinking'
p2712
sS'same'
p2713
S'same'
p2714
sS'check'
p2715
S'check'
p2716
sS'food'
p2717
S'food'
p2718
sS'lovematch'
p2719
S'lovematch'
p2720
sS'@faczsy'
p2721
S'@faczsy'
p2722
sS'speech'
p2723
S'speech'
p2724
sS'catfish'
p2725
S'catfish'
p2726
sS'fo'
p2727
S'for'
p2728
sS'lyk'
p2729
S'like'
p2730
sS'embarrased'
p2731
S'embarrassed'
p2732
sS'thee'
p2733
S'thee'
p2734
sS'pan'
p2735
S'pan'
p2736
sS'week'
p2737
S'week'
p2738
sS'bussiness'
p2739
S'business'
p2740
sS'finish'
p2741
S'finish'
p2742
sS'holla'
p2743
S'holler'
p2744
sS'tofog'
p2745
S'tofog'
p2746
sS'@smharty_pants'
p2747
S'@smharty_pants'
p2748
sS'changing'
p2749
S'changing'
p2750
sS'kindaa'
p2751
S'kindaa'
p2752
sS'@wwehornswoggle'
p2753
S'@wwehornswoggle'
p2754
sS'charger'
p2755
S'charger'
p2756
sS'ccp'
p2757
S'ccp'
p2758
sS'nothin'
p2759
S'nothing'
p2760
sS'severe'
p2761
S'severe'
p2762
sS'without'
p2763
S'without'
p2764
sS'comes'
p2765
S'comes'
p2766
sS'flocka'
p2767
S'flocka'
p2768
sS'@scooby_atkins'
p2769
S'@scooby_atkins'
p2770
sS'@kiru_b'
p2771
S'@kiru_b'
p2772
sS'@shorthairchic09'
p2773
S'@shorthairchic09'
p2774
sS'blessed'
p2775
S'blessed'
p2776
sS'@bbatista2090'
p2777
S'@bbatista2090'
p2778
sS'@un4getablesmile'
p2779
S'@un4getablesmile'
p2780
sS'being'
p2781
S'being'
p2782
sS'when'
p2783
S'when'
p2784
sS'sum1'
p2785
S'someone'
p2786
sS'shouts'
p2787
S'shouts'
p2788
sS'kill'
p2789
S'kill'
p2790
sS'wifey'
p2791
S'wife'
p2792
sS'@josephkapsch'
p2793
S'@josephkapsch'
p2794
sS'touch'
p2795
S'touch'
p2796
sS'polish'
p2797
S'polish'
p2798
sS'ketamine'
p2799
S'ketamine'
p2800
sS'rover'
p2801
S'rover'
p2802
sS'@iammisundast00d'
p2803
S'@iammisundast00d'
p2804
sS'yaaay'
p2805
S'yaaay'
p2806
sS'rose'
p2807
S'rose'
p2808
sS'seems'
p2809
S'seems'
p2810
sS'except'
p2811
S'except'
p2812
sS'blog'
p2813
S'blog'
p2814
sS'mann'
p2815
S'mann'
p2816
sS'ahhhh'
p2817
S'ahhhh'
p2818
sS'4'
p2819
S'for'
p2820
sS'evrybodi'
p2821
S'everybody'
p2822
sS'@yogagirl235'
p2823
S'@yogagirl235'
p2824
sS'bread'
p2825
S'bread'
p2826
sS'real'
p2827
S'real'
p2828
sS'mystery'
p2829
S'mystery'
p2830
sS'around'
p2831
S'around'
p2832
sS'kills'
p2833
S'kills'
p2834
sS'rules'
p2835
S'rules'
p2836
sS'mor'
p2837
S'more'
p2838
sS'amc'
p2839
S'amc'
p2840
sS'gonna'
p2841
S'gonna'
p2842
sS'enitiree'
p2843
S'entire'
p2844
sS'dark'
p2845
S'dark'
p2846
sS'warehouse'
p2847
S'warehouse'
p2848
sS'killa'
p2849
S'killer'
p2850
sS'mon'
p2851
S'mon'
p2852
sS'listening'
p2853
S'listening'
p2854
sS'world'
p2855
S'world'
p2856
sS'cd'
p2857
S'cd'
p2858
sS'lady'
p2859
S'lady'
p2860
sS'ladyish'
p2861
S'ladylike'
p2862
sS"let'em"
p2863
S"let'em"
p2864
sS'@capt_unpossible'
p2865
S'@capt_unpossible'
p2866
sS'patrick'
p2867
S'patrick'
p2868
sS'ganesh'
p2869
S'ganesh'
p2870
sS'maker'
p2871
S'maker'
p2872
sS'blackberry'
p2873
S'blackberry'
p2874
sS'h033'
p2875
S'h033'
p2876
sS"couldn't"
p2877
S"couldn't"
p2878
sS'joking'
p2879
S'joking'
p2880
sS'@briannacruz'
p2881
S'@briannacruz'
p2882
sS'interestng'
p2883
S'interesting'
p2884
sS'erase'
p2885
S'erase'
p2886
sS'specified'
p2887
S'specified'
p2888
sS'playin'
p2889
S'playing'
p2890
sS'yesss'
p2891
S'yes'
p2892
sS'gavaskar'
p2893
S'gavaskar'
p2894
sS'mood'
p2895
S'mood'
p2896
sS'substance'
p2897
S'substance'
p2898
sS'memories'
p2899
S'memories'
p2900
sS'drove'
p2901
S'drove'
p2902
sS'nooo'
p2903
S'no'
p2904
sS'http://bit.ly/bduich'
p2905
S'http://bit.ly/bduich'
p2906
sS'throat'
p2907
S'throat'
p2908
sS'sucha'
p2909
S'sucha'
p2910
sS'@tommiecollins'
p2911
S'@tommiecollins'
p2912
sS'@hiiimher'
p2913
S'@hiiimher'
p2914
sS'squirt'
p2915
S'squirt'
p2916
sS'@kanyewest'
p2917
S'@kanyewest'
p2918
sS'football'
p2919
S'football'
p2920
sS'business'
p2921
S'business'
p2922
sS'lmfao'
p2923
S'lmfao'
p2924
sS'longstockings'
p2925
S'longstockings'
p2926
sS"cece's"
p2927
S"cece's"
p2928
sS'@jungmin0403'
p2929
S'@jungmin0403'
p2930
sS'found'
p2931
S'found'
p2932
sS'@wyclef'
p2933
S'@wyclef'
p2934
sS'@quiethebeau'
p2935
S'@quiethebeau'
p2936
sS'throw'
p2937
S'throw'
p2938
sS'_'
p2939
g2939
sS'acc'
p2940
S'actually'
p2941
sS'on'
p2942
S'on'
p2943
sS"@mark_salling's"
p2944
S"@mark_salling's"
p2945
sS'ok'
p2946
S'ok'
p2947
sS'oj'
p2948
S'oj'
p2949
sS'oi'
p2950
S'oi'
p2951
sS'oh'
p2952
S'oh'
p2953
sS'of'
p2954
S'of'
p2955
sS'od'
p2956
S'have'
p2957
sS'otha'
p2958
S'other'
p2959
sS'meaning'
p2960
S'meaning'
p2961
sS'wolf'
p2962
S'wolf'
p2963
sS'stand'
p2964
S'stand'
p2965
sS'@percy__harvin'
p2966
S'@percy__harvin'
p2967
sS'mixed'
p2968
S'mixed'
p2969
sS'#p2'
p2970
S'#p2'
p2971
sS'luck'
p2972
S'luck'
p2973
sS'or'
p2974
S'or'
p2975
sS'road'
p2976
S'road'
p2977
sS'op'
p2978
S'op'
p2979
sS'ladies'
p2980
S'ladies'
p2981
sS'protests'
p2982
S'protests'
p2983
sS'smiled'
p2984
S'smiled'
p2985
sS'@alvinlaxamana'
p2986
S'@alvinlaxamana'
p2987
sS'homeless'
p2988
S'homeless'
p2989
sS'einstein'
p2990
S'einstein'
p2991
sS'uptown'
p2992
S'uptown'
p2993
sS'youu'
p2994
S'you'
p2995
sS'nowadays'
p2996
S'nowadays'
p2997
sS'your'
p2998
S'your'
p2999
sS'stare'
p3000
S'stare'
p3001
sS'aree'
p3002
S'are'
p3003
sS'sumtin'
p3004
S'something'
p3005
sS'her'
p3006
S'her'
p3007
sS'hes'
p3008
S'hes'
p3009
sS'crunk'
p3010
S'crunk'
p3011
sS'asuhdhsauhua'
p3012
S'asuhdhsauhua'
p3013
sS'there'
p3014
S'there'
p3015
sS'sideline'
p3016
S'sideline'
p3017
sS'lol'
p3018
S'lol'
p3019
sS'21:00:00'
p3020
S'21:00:00'
p3021
sS'lmfaooo'
p3022
S'lmfaooo'
p3023
sS'start'
p3024
S'start'
p3025
sS'mondays'
p3026
S'mondays'
p3027
sS'low'
p3028
S'low'
p3029
sS'lot'
p3030
S'lot'
p3031
sS'cultures'
p3032
S'cultures'
p3033
sS'valley'
p3034
S'valley'
p3035
sS'@micseannyc'
p3036
S'@micseannyc'
p3037
sS'ehh'
p3038
S'ehh'
p3039
sS'treat'
p3040
S'treat'
p3041
sS'ago'
p3042
S'ago'
p3043
sS'@imfuckincg'
p3044
S'@imfuckincg'
p3045
sS'@databominationd'
p3046
S'@databominationd'
p3047
sS'csprings'
p3048
S'csprings'
p3049
sS'cabinet'
p3050
S'cabinet'
p3051
sS'jus'
p3052
S'just'
p3053
sS'brain'
p3054
S'brain'
p3055
sS'e'
p3056
g3056
sS'shrugs'
p3057
S'shrugs'
p3058
sS'trying'
p3059
S'trying'
p3060
sS'with'
p3061
S'with'
p3062
sS'haitian'
p3063
S'haitian'
p3064
sS'buying'
p3065
S'buying'
p3066
sS"they're"
p3067
S"they're"
p3068
sS'woman'
p3069
S'woman'
p3070
sS"wasn't"
p3071
S"wasn't"
p3072
sS'dawg'
p3073
S'dawg'
p3074
sS'@ddoglam'
p3075
S'@ddoglam'
p3076
sS"can't"
p3077
S"can't"
p3078
sS'appology'
p3079
S'apology'
p3080
sS'agree'
p3081
S'agree'
p3082
sS'detailed'
p3083
S'detailed'
p3084
sS'gone'
p3085
S'gone'
p3086
sS'carver'
p3087
S'carver'
p3088
sS'ohh'
p3089
S'oh'
p3090
sS'ai'
p3091
S'ai'
p3092
sS'certain'
p3093
S'certain'
p3094
sS'forgot'
p3095
S'forgot'
p3096
sS'am'
p3097
S'am'
p3098
sS'watches'
p3099
S'watches'
p3100
sS'an'
p3101
S'an'
p3102
sS'as'
p3103
S'as'
p3104
sS'830am'
p3105
S'830am'
p3106
sS'at'
p3107
S'at'
p3108
sS'nerd'
p3109
S'nerd'
p3110
sS'yoo'
p3111
S'yoo'
p3112
sS'again'
p3113
S'again'
p3114
sS'yaheard'
p3115
S'yaheard'
p3116
sS'@badass_rome'
p3117
S'@badass_rome'
p3118
sS'flutie'
p3119
S'flutie'
p3120
sS'@andrewatyus'
p3121
S'@andrewatyus'
p3122
sS'1bluvision'
p3123
S'1bluvision'
p3124
sS'graduate'
p3125
S'graduate'
p3126
sS'bragging'
p3127
S'bragging'
p3128
sS'@forkspixie'
p3129
S'@forkspixie'
p3130
sS'5'
p3131
g3131
sS'you'
p3132
S'you'
p3133
sS'poor'
p3134
S'poor'
p3135
sS'so-55ouz'
p3136
S'so-55ouz'
p3137
sS'@bwyatt23'
p3138
S'@bwyatt23'
p3139
sS'a.'
p3140
S'a.'
p3141
sS'keepin'
p3142
S'keeping'
p3143
sS'#nowyaknow'
p3144
S'#nowyaknow'
p3145
sS'@ambbernicoleeee'
p3146
S'@ambbernicoleeee'
p3147
sS"she's"
p3148
S"she's"
p3149
sS'chris'
p3150
S'chris'
p3151
sS'@ao760'
p3152
S'@ao760'
p3153
sS'pool'
p3154
S'pool'
p3155
sS'missed'
p3156
S'missed'
p3157
sS'tiger'
p3158
S'tiger'
p3159
sS'studio'
p3160
S'studio'
p3161
sS'calls'
p3162
S'calls'
p3163
sS'wssp'
p3164
S'wssp'
p3165
sS'having'
p3166
S'having'
p3167
sS'u'
p3168
S'you'
p3169
sS'restricted'
p3170
S'restricted'
p3171
sS'alright'
p3172
S'alright'
p3173
sS'starting'
p3174
S'starting'
p3175
sS'cpu'
p3176
S'cpu'
p3177
sS'wheeree'
p3178
S'where'
p3179
sS'all'
p3180
S'all'
p3181
sS'consider'
p3182
S'consider'
p3183
sS'excepting'
p3184
S'excepting'
p3185
sS'lack'
p3186
S'lack'
p3187
sS'dollar'
p3188
S'dollar'
p3189
sS'irrate'
p3190
S'irate'
p3191
sS'remeber'
p3192
S'remember'
p3193
sS'awhh'
p3194
S'awhh'
p3195
sS'elfsinjapan'
p3196
S'elfsinjapan'
p3197
sS'welfare'
p3198
S'welfare'
p3199
sS'follow'
p3200
S'follow'
p3201
sS'religious'
p3202
S'religious'
p3203
sS'causes'
p3204
S'causes'
p3205
sS'hmmm'
p3206
S'hmmm'
p3207
sS'hunting'
p3208
S'hunting'
p3209
sS'imma'
p3210
S'imma'
p3211
sS'farmington'
p3212
S'farmington'
p3213
sS'tt'
p3214
S'tt'
p3215
sS'thursday'
p3216
S'thursday'
p3217
sS'spirit'
p3218
S'spirit'
p3219
sS'to'
p3220
S'to'
p3221
sS'tl'
p3222
S'tl'
p3223
sS'danielle'
p3224
S'danielle'
p3225
sS'smile'
p3226
S'smile'
p3227
sS'hideous'
p3228
S'hideous'
p3229
sS'ta'
p3230
S'ta'
p3231
sS'sound'
p3232
S'sound'
p3233
sS'unliked'
p3234
S'disliked'
p3235
sS'@courtnehxnexus'
p3236
S'@courtnehxnexus'
p3237
sS'song'
p3238
S'song'
p3239
sS'far'
p3240
S'far'
p3241
sS'sonqs'
p3242
S'songs'
p3243
sS'myself'
p3244
S'myself'
p3245
sS'fat'
p3246
S'fat'
p3247
sS'tweeter'
p3248
S'tweeter'
p3249
sS'sonq'
p3250
S'song'
p3251
sS'worst'
p3252
S'worst'
p3253
sS'http://sarugeorge.wordpress.com/2010/10/25/all-that-glitters-is-not-gold/'
p3254
S'http://sarugeorge.wordpress.com/2010/10/25/all-that-glitters-is-not-gold/'
p3255
sS'decide'
p3256
S'decide'
p3257
sS'fam'
p3258
S'fam'
p3259
sS'fab'
p3260
S'fabulous'
p3261
sS'@allpoloevrythng'
p3262
S'@allpoloevrythng'
p3263
sS'difference'
p3264
S'difference'
p3265
sS'ramen'
p3266
S'ramen'
p3267
sS'vero'
p3268
S'vero'
p3269
sS'elated'
p3270
S'elated'
p3271
sS'heaven'
p3272
S'heaven'
p3273
sS'distant'
p3274
S'distant'
p3275
sS'boiy'
p3276
S'boiy'
p3277
sS'spiderman'
p3278
S'spiderman'
p3279
sS'sane'
p3280
S'sane'
p3281
sS'startin'
p3282
S'starting'
p3283
sS'nickname'
p3284
S'nickname'
p3285
sS'@violavantise'
p3286
S'@violavantise'
p3287
sS'@jakelauckern'
p3288
S'@jakelauckern'
p3289
sS'@banggab'
p3290
S'@banggab'
p3291
sS'iht'
p3292
S'it'
p3293
sS'tea'
p3294
S'tea'
p3295
sS'past'
p3296
S'past'
p3297
sS'rate'
p3298
S'rate'
p3299
sS'titles'
p3300
S'titles'
p3301
sS'design'
p3302
S'design'
p3303
sS'@jaziiphresh813'
p3304
S'@jaziiphresh813'
p3305
sS'pass'
p3306
S'pass'
p3307
sS'further'
p3308
S'further'
p3309
sS'pshh'
p3310
S'pshh'
p3311
sS'gm'
p3312
S'gm'
p3313
sS'@youngandblessed'
p3314
S'@youngandblessed'
p3315
sS'what'
p3316
S'what'
p3317
sS'stood'
p3318
S'stood'
p3319
sS'tastic'
p3320
S'tastic'
p3321
sS'clock'
p3322
S'clock'
p3323
sS'sum'
p3324
S'sum'
p3325
sS'youur'
p3326
S"you're"
p3327
sS'fuckn'
p3328
S'fucking'
p3329
sS'abt'
p3330
S'about'
p3331
sS'undecided'
p3332
S'undecided'
p3333
sS'nurse'
p3334
S'nurse'
p3335
sS'public'
p3336
S'public'
p3337
sS'sux'
p3338
S'sucks'
p3339
sS"c'mon"
p3340
S"c'mon"
p3341
sS'neng'
p3342
S'neng'
p3343
sS'loose'
p3344
S'loose'
p3345
sS'madhats'
p3346
S'madhats'
p3347
sS'hours'
p3348
S'hours'
p3349
sS'jonas'
p3350
S'jonas'
p3351
sS'righty'
p3352
S'right'
p3353
sS'grudges'
p3354
S'grudges'
p3355
sS'@kelseybee33'
p3356
S'@kelseybee33'
p3357
sS'november'
p3358
S'november'
p3359
sS'strong'
p3360
S'strong'
p3361
sS'shoulda'
p3362
S"should've"
p3363
sS'#getslapped'
p3364
S'#getslapped'
p3365
sS'search'
p3366
S'search'
p3367
sS'bible'
p3368
S'bible'
p3369
sS'ahead'
p3370
S'ahead'
p3371
sS'tomoro'
p3372
S'tomorrow'
p3373
sS'@all4nothingband'
p3374
S'@all4nothingband'
p3375
sS'mmo'
p3376
S'mmo'
p3377
sS'pics'
p3378
S'pictures'
p3379
sS'himm'
p3380
S'him'
p3381
sS'tele'
p3382
S'telephone'
p3383
sS'pick'
p3384
S'pick'
p3385
sS'pice'
p3386
S'price'
p3387
sS'@cowboyz_4life'
p3388
S'@cowboyz_4life'
p3389
sS'@ms_olateju'
p3390
S'@ms_olateju'
p3391
sS'via'
p3392
S'via'
p3393
sS'followed'
p3394
S'followed'
p3395
sS'hahaah'
p3396
S'hahaah'
p3397
sS'family'
p3398
S'family'
p3399
sS'girrrrl'
p3400
S'girl'
p3401
sS'suddenly'
p3402
S'suddenly'
p3403
sS'@fanybites'
p3404
S'@fanybites'
p3405
sS'@groffiction'
p3406
S'@groffiction'
p3407
sS'ask'
p3408
S'ask'
p3409
sS'follower'
p3410
S'follower'
p3411
sS'http://bit.ly/9uzlba'
p3412
S'http://bit.ly/9uzlba'
p3413
sS'#speaknow'
p3414
S'#speaknow'
p3415
sS"beta's"
p3416
S"beta's"
p3417
sS'http://bit.ly/cjyqcp'
p3418
S'http://bit.ly/cjyqcp'
p3419
sS'@2_cool_e'
p3420
S'@2_cool_e'
p3421
sS'@prettybrwneyez1'
p3422
S'@prettybrwneyez1'
p3423
sS'@tiffy_rozay'
p3424
S'@tiffy_rozay'
p3425
sS'@revrunwisdom'
p3426
S'@revrunwisdom'
p3427
sS'two'
p3428
S'two'
p3429
sS'@hustlehardgotti'
p3430
S'@hustlehardgotti'
p3431
sS'mytouch'
p3432
S'mytouch'
p3433
sS'http://bit.ly/9yml6d'
p3434
S'http://bit.ly/9yml6d'
p3435
sS'6'
p3436
g3436
sS'taken'
p3437
S'taken'
p3438
sS'more'
p3439
S'more'
p3440
sS'jyjy'
p3441
S'jyjy'
p3442
sS'tryna'
p3443
S'tryna'
p3444
sS'door'
p3445
S'door'
p3446
sS'knows'
p3447
S'knows'
p3448
sS'purse'
p3449
S'purse'
p3450
sS'thinjg'
p3451
S'thing'
p3452
sS'askin'
p3453
S'asking'
p3454
sS'excuse'
p3455
S'excuse'
p3456
sS"ain't"
p3457
S"ain't"
p3458
sS'basically'
p3459
S'basically'
p3460
sS'broke'
p3461
S'broke'
p3462
sS'suite'
p3463
S'suite'
p3464
sS'known'
p3465
S'known'
p3466
sS'@redliteroxanne'
p3467
S'@redliteroxanne'
p3468
sS'glad'
p3469
S'glad'
p3470
sS'dey'
p3471
S'they'
p3472
sS'none'
p3473
S'none'
p3474
sS'watchu'
p3475
S'watchu'
p3476
sS'sucks'
p3477
S'sucks'
p3478
sS'@rrachhh'
p3479
S'@rrachhh'
p3480
sS'mall'
p3481
S'mall'
p3482
sS'dem'
p3483
S'dem'
p3484
sS'learn'
p3485
S'learn'
p3486
sS'knocked'
p3487
S'knocked'
p3488
sS'b-zo'
p3489
S'b-zo'
p3490
sS'male'
p3491
S'male'
p3492
sS'def'
p3493
S'def'
p3494
sS'beautiful'
p3495
S'beautiful'
p3496
sS'f1'
p3497
S'f1'
p3498
sS'pushes'
p3499
S'pushes'
p3500
sS'division'
p3501
S'division'
p3502
sS'share'
p3503
S'share'
p3504
sS'accept'
p3505
S'accept'
p3506
sS'lolol'
p3507
S'lolol'
p3508
sS'afta'
p3509
S'after'
p3510
sS'sense'
p3511
S'sense'
p3512
sS'sharp'
p3513
S'sharp'
p3514
sS'offspring'
p3515
S'offspring'
p3516
sS'!'
p3517
g3517
sS'huge'
p3518
S'huge'
p3519
sS'needs'
p3520
S'needs'
p3521
sS'court'
p3522
S'court'
p3523
sS'rather'
p3524
S'rather'
p3525
sS'comfort'
p3526
S'comfort'
p3527
sS'fame'
p3528
S'fame'
p3529
sS'@rashard_lewis'
p3530
S'@rashard_lewis'
p3531
sS'hugs'
p3532
S'hugs'
p3533
sS'@reresoopreddiee'
p3534
S'@reresoopreddiee'
p3535
sS'okay'
p3536
S'okay'
p3537
sS'threat'
p3538
S'threat'
p3539
sS'sneak'
p3540
S'sneak'
p3541
sS'bkk'
p3542
S'break'
p3543
sS'whippin'
p3544
S'whipping'
p3545
sS'fa'
p3546
S'fa'
p3547
sS'fb'
p3548
S'facebook'
p3549
sS'planb'
p3550
S'planb'
p3551
sS'adventure'
p3552
S'adventure'
p3553
sS'coming'
p3554
S'coming'
p3555
sS'@sardesairajdeep'
p3556
S'@sardesairajdeep'
p3557
sS'somewre'
p3558
S'somewhere'
p3559
sS'a'
p3560
g3560
sS'@bai_ladii'
p3561
S'@bai_ladii'
p3562
sS'tupac'
p3563
S'tupac'
p3564
sS'read'
p3565
S'read'
p3566
sS'tweeting'
p3567
S'tweeting'
p3568
sS'lhh'
p3569
S'lhh'
p3570
sS'@foxboogie'
p3571
S'@foxboogie'
p3572
sS'@iglamed'
p3573
S'@iglamed'
p3574
sS"that's"
p3575
S"that's"
p3576
sS'help'
p3577
S'help'
p3578
sS"don't"
p3579
S"don't"
p3580
sS'september'
p3581
S'september'
p3582
sS'sooo'
p3583
S'so'
p3584
sS'soon'
p3585
S'soon'
p3586
sS'bcuz'
p3587
S'because'
p3588
sS'isnt'
p3589
S"isn't"
p3590
sS'paper'
p3591
S'paper'
p3592
sS'through'
p3593
S'through'
p3594
sS'daamn'
p3595
S'damn'
p3596
sS'hell'
p3597
S'hell'
p3598
sS'lookinass'
p3599
S'lookinass'
p3600
sS'its'
p3601
S'its'
p3602
sS'24'
p3603
S'24'
p3604
sS'25'
p3605
S'25'
p3606
sS'20'
p3607
S'20'
p3608
sS'21'
p3609
S'21'
p3610
sS'rika'
p3611
S'rika'
p3612
sS'@metrobeatz'
p3613
S'@metrobeatz'
p3614
sS'thnx'
p3615
S'thanks'
p3616
sS'#shwag'
p3617
S'#shwag'
p3618
sS'wrk'
p3619
S'work'
p3620
sS'actually'
p3621
S'actually'
p3622
sS'late'
p3623
S'late'
p3624
sS'shotti'
p3625
S'shotgun'
p3626
sS'wilujeng'
p3627
S'wilujeng'
p3628
sS'@sno0p_b'
p3629
S'@sno0p_b'
p3630
sS'bout'
p3631
S'bout'
p3632
sS'cool'
p3633
S'cool'
p3634
sS"haven't"
p3635
S"haven't"
p3636
sS'someone'
p3637
S'someone'
p3638
sS'somebody'
p3639
S'somebody'
p3640
sS'sucking'
p3641
S'sucking'
p3642
sS'yo'
p3643
S'yo'
p3644
sS'@lacedwlacy'
p3645
S'@lacedwlacy'
p3646
sS'sucker'
p3647
S'sucker'
p3648
sS'twitterheads'
p3649
S'twitterheads'
p3650
sS'http://tl.gd/6l13in'
p3651
S'http://tl.gd/6l13in'
p3652
sS'yr'
p3653
S'year'
p3654
sS'yu'
p3655
S'you'
p3656
sS'yt'
p3657
S'you'
p3658
sS'bigger'
p3659
S'bigger'
p3660
sS'@lanae810'
p3661
S'@lanae810'
p3662
sS"sicken'n"
p3663
S'sickening'
p3664
sS'reassured'
p3665
S'reassured'
p3666
sS'glaring'
p3667
S'glaring'
p3668
sS'everytime'
p3669
S'everytime'
p3670
sS'always'
p3671
S'always'
p3672
sS'slowlyy'
p3673
S'slowly'
p3674
sS'stopped'
p3675
S'stopped'
p3676
sS'pearlypoonkie'
p3677
S'pearlypoonkie'
p3678
sS'die'
p3679
S'die'
p3680
sS'biebers'
p3681
S"bieber's"
p3682
sS'@missctothec'
p3683
S'@missctothec'
p3684
sS'trailer'
p3685
S'trailer'
p3686
sS'status'
p3687
S'status'
p3688
sS'everyone'
p3689
S'everyone'
p3690
sS'pamper'
p3691
S'pamper'
p3692
sS'house'
p3693
S'house'
p3694
sS'hard'
p3695
S'hard'
p3696
sS'idea'
p3697
S'idea'
p3698
sS'accidentally'
p3699
S'accidentally'
p3700
sS'jewlery'
p3701
S'jewelry'
p3702
sS'#reasonswhyiloveyou'
p3703
S'#reasonswhyiloveyou'
p3704
sS'beyond'
p3705
S'beyond'
p3706
sS'event'
p3707
S'event'
p3708
sS'really'
p3709
S'really'
p3710
sS'http://twitpic.com/30nrky'
p3711
S'http://twitpic.com/30nrky'
p3712
sS'iza'
p3713
S'is'
p3714
sS'prolly'
p3715
S'probably'
p3716
sS'dupri'
p3717
S'dupri'
p3718
sS'since'
p3719
S'since'
p3720
sS'promo'
p3721
S'promo'
p3722
sS'babydaddy'
p3723
S'babydaddy'
p3724
sS'lord'
p3725
S'lord'
p3726
sS'7'
p3727
g3727
sS'@anarchy_30'
p3728
S'@anarchy_30'
p3729
sS'ass'
p3730
S'ass'
p3731
sS'wattpad'
p3732
S'wattpad'
p3733
sS'sparked'
p3734
S'sparked'
p3735
sS'forgive'
p3736
S'forgive'
p3737
sS'#india'
p3738
S'#india'
p3739
sS'reason'
p3740
S'reason'
p3741
sS'hott'
p3742
S'hot'
p3743
sS'members'
p3744
S'members'
p3745
sS'imagine'
p3746
S'imagine'
p3747
sS'put'
p3748
S'put'
p3749
sS'loads'
p3750
S'loads'
p3751
sS'cookin'
p3752
S'cooking'
p3753
sS'amped'
p3754
S'amped'
p3755
sS'computers'
p3756
S'computers'
p3757
sS'terrible'
p3758
S'terrible'
p3759
sS'oppa'
p3760
S'oppa'
p3761
sS'american'
p3762
S'american'
p3763
sS'@lovelychante'
p3764
S'@lovelychante'
p3765
sS'w'
p3766
S'with'
p3767
sS'2marrow'
p3768
S'tomorrow'
p3769
sS'wired'
p3770
S'wired'
p3771
sS'feed'
p3772
S'feed'
p3773
sS'babyyyy'
p3774
S'baby'
p3775
sS'dont'
p3776
S"don't"
p3777
sS'feel'
p3778
S'feel'
p3779
sS'@shanolahampton'
p3780
S'@shanolahampton'
p3781
sS'@littlecbeadles'
p3782
S'@littlecbeadles'
p3783
sS'http://bit.afz.biz/cjovs'
p3784
S'http://bit.afz.biz/cjovs'
p3785
sS'dint'
p3786
S'dint'
p3787
sS'done'
p3788
S'done'
p3789
sS'teds'
p3790
S"ted's"
p3791
sS'miss'
p3792
S'miss'
p3793
sS'______'
p3794
S'______'
p3795
sS'guess'
p3796
S'guess'
p3797
sS'"'
p3798
g3798
sS'heads'
p3799
S'heads'
p3800
sS'paint'
p3801
S'paint'
p3802
sS'@teetoosweet'
p3803
S'@teetoosweet'
p3804
sS'azbubo'
p3805
S'azbubo'
p3806
sS'sureeeeeeeeeeeeeee'
p3807
S'sure'
p3808
sS'passed'
p3809
S'passed'
p3810
sS'mama'
p3811
S'mama'
p3812
sS'allllllllll'
p3813
S'all'
p3814
sS'nobodie'
p3815
S'nobody'
p3816
sS'selling'
p3817
S'selling'
p3818
sS'tol'
p3819
S'told'
p3820
sS'hotel'
p3821
S'hotel'
p3822
sS'park'
p3823
S'park'
p3824
sS'@lavetterenee'
p3825
S'@lavetterenee'
p3826
sS'@_foreverbarbie'
p3827
S'@_foreverbarbie'
p3828
sS'sensation'
p3829
S'sensation'
p3830
sS'mmmm'
p3831
S'mmmm'
p3832
sS'part'
p3833
S'part'
p3834
sS'permanent'
p3835
S'permanent'
p3836
sS'@russellcrowe'
p3837
S'@russellcrowe'
p3838
sS'authors'
p3839
S'authors'
p3840
sS'sold'
p3841
S'sold'
p3842
sS'@princetatted'
p3843
S'@princetatted'
p3844
sS'albums'
p3845
S'albums'
p3846
sS'believe'
p3847
S'believe'
p3848
sS'wudd'
p3849
S'would'
p3850
sS'shld'
p3851
S'should'
p3852
sS'niggardly'
p3853
S'niggardly'
p3854
sS'kind'
p3855
S'kind'
p3856
sS'b'
p3857
S'be'
p3858
sS'rappin'
p3859
S'rapping'
p3860
sS'inducted'
p3861
S'inducted'
p3862
sS'rememberd'
p3863
S'remembered'
p3864
sS'walmart'
p3865
S'walmart'
p3866
sS'youth'
p3867
S'youth'
p3868
sS"what's"
p3869
S"what's"
p3870
sS'determined'
p3871
S'determined'
p3872
sS'marriage'
p3873
S'marriage'
p3874
sS'dang'
p3875
S'dang'
p3876
sS'18x'
p3877
S'18x'
p3878
sS'toward'
p3879
S'toward'
p3880
sS'rememberr'
p3881
S'remember'
p3882
sS'uniforms'
p3883
S'uniforms'
p3884
sS'outta'
p3885
S'out'
p3886
sS'virgo'
p3887
S'virgo'
p3888
sS'wasnt'
p3889
S"wasn't"
p3890
sS'lmaooooo'
p3891
S'lmaooooo'
p3892
sS'http://tl.gd/6l1401'
p3893
S'http://tl.gd/6l1401'
p3894
sS'@mariahdupree'
p3895
S'@mariahdupree'
p3896
sS'bhu'
p3897
S'but'
p3898
sS'sell'
p3899
S'sell'
p3900
sS'lie'
p3901
S'lie'
p3902
sS"jon's"
p3903
S"jon's"
p3904
sS'lil'
p3905
S'little'
p3906
sS'@nanas_mommy_'
p3907
S'@nanas_mommy_'
p3908
sS'self'
p3909
S'self'
p3910
sS'also'
p3911
S'also'
p3912
sS'underwood'
p3913
S'underwood'
p3914
sS'yeahh'
p3915
S'yes'
p3916
sS'eff'
p3917
S'fuck'
p3918
sS'boutah'
p3919
S'boutah'
p3920
sS'ohhdee'
p3921
S'ohhdee'
p3922
sS'play'
p3923
S'play'
p3924
sS'added'
p3925
S'added'
p3926
sS'macs'
p3927
S'macs'
p3928
sS'jermaine'
p3929
S'jermaine'
p3930
sS'byeee'
p3931
S'bye'
p3932
sS'wata'
p3933
S'what'
p3934
sS"sam's"
p3935
S"sam's"
p3936
sS'most'
p3937
S'most'
p3938
sS'#tear'
p3939
S'#tear'
p3940
sS'@iamgodsgift_'
p3941
S'@iamgodsgift_'
p3942
sS'nothing'
p3943
S'nothing'
p3944
sS'pedestrains'
p3945
S'pedestrians'
p3946
sS'mack'
p3947
S'mack'
p3948
sS'approved'
p3949
S'approved'
p3950
sS'roids'
p3951
S'steroids'
p3952
sS'ka'
p3953
S'ka'
p3954
sS'\xe2'
p3955
g3955
sS'windows'
p3956
S'windows'
p3957
sS'@bullsbabe7'
p3958
S'@bullsbabe7'
p3959
sS'chicago'
p3960
S'chicago'
p3961
sS'@princepinn'
p3962
S'@princepinn'
p3963
sS'exp'
p3964
S'experience'
p3965
sS'yhu'
p3966
S'you'
p3967
sS'rackss'
p3968
S'racks'
p3969
sS'hips'
p3970
S'hips'
p3971
sS'ugh'
p3972
S'ugh'
p3973
sS'gold'
p3974
S'gold'
p3975
sS'@atirapooh87'
p3976
S'@atirapooh87'
p3977
sS'sorryy'
p3978
S'sorry'
p3979
sS'@rosiexroz'
p3980
S'@rosiexroz'
p3981
sS'http://tl.gd/6l13jk'
p3982
S'http://tl.gd/6l13jk'
p3983
sS'session'
p3984
S'session'
p3985
sS'fina'
p3986
S'fina'
p3987
sS'jared'
p3988
S'jared'
p3989
sS'gutta'
p3990
S'gutta'
p3991
sS'find'
p3992
S'find'
p3993
sS'ooowa'
p3994
S'ooowa'
p3995
sS'giant'
p3996
S'giant'
p3997
sS'sayin'
p3998
S'saying'
p3999
sS'hope'
p4000
S'hope'
p4001
sS'waiting'
p4002
S'waiting'
p4003
sS'@papad510'
p4004
S'@papad510'
p4005
sS'@ratedd_l'
p4006
S'@ratedd_l'
p4007
sS'indian'
p4008
S'indian'
p4009
sS'#tyj'
p4010
S'#tyj'
p4011
sS'pretty'
p4012
S'pretty'
p4013
sS'money'
p4014
S'money'
p4015
sS'@pmb_karisma'
p4016
S'@pmb_karisma'
p4017
sS'teachrs'
p4018
S'teachers'
p4019
sS'his'
p4020
S'his'
p4021
sS'hit'
p4022
S'hit'
p4023
sS'@thuggyfresh'
p4024
S'@thuggyfresh'
p4025
sS'famous'
p4026
S'famous'
p4027
sS'feels'
p4028
S'feels'
p4029
sS'longest'
p4030
S'longest'
p4031
sS'@msgp2u2010'
p4032
S'@msgp2u2010'
p4033
sS'during'
p4034
S'during'
p4035
sS'laurelton'
p4036
S'laurelton'
p4037
sS'him'
p4038
S'him'
p4039
sS'zaddie'
p4040
S'zaddie'
p4041
sS'withh'
p4042
S'with'
p4043
sS'consensual'
p4044
S'consensual'
p4045
sS'cry'
p4046
S'cry'
p4047
sS'@ben_lippert'
p4048
S'@ben_lippert'
p4049
sS'anniversery'
p4050
S'anniversary'
p4051
sS'hype'
p4052
S'hype'
p4053
sS'x'
p4054
g4054
sS'river'
p4055
S'river'
p4056
sS'wrote'
p4057
S'wrote'
p4058
sS'riqht'
p4059
S'right'
p4060
sS'dump'
p4061
S'dump'
p4062
sS'devils'
p4063
S'devils'
p4064
sS'sumfng'
p4065
S'something'
p4066
sS'sex'
p4067
S'sex'
p4068
sS'@go_smack'
p4069
S'@go_smack'
p4070
sS'lion'
p4071
S'lion'
p4072
sS'dumb'
p4073
S'dumb'
p4074
sS'are'
p4075
S'are'
p4076
sS'@anngieeee__'
p4077
S'@anngieeee__'
p4078
sS'seo'
p4079
S'seo'
p4080
sS'close'
p4081
S'close'
p4082
sS'angie'
p4083
S'angie'
p4084
sS'retweet'
p4085
S'retweet'
p4086
sS'#shameless'
p4087
S'#shameless'
p4088
sS'movin'
p4089
S'moving'
p4090
sS'wkend'
p4091
S'weekend'
p4092
sS'movie'
p4093
S'movie'
p4094
sS'wow'
p4095
S'wow'
p4096
sS'please'
p4097
S'please'
p4098
sS'affiliate'
p4099
S'affiliate'
p4100
sS'fans'
p4101
S'fans'
p4102
sS'won'
p4103
S'won'
p4104
sS'probably'
p4105
S'probably'
p4106
sS'rite'
p4107
S'rite'
p4108
sS'nope'
p4109
S'nope'
p4110
sS'watchin'
p4111
S'watching'
p4112
sS'knowing'
p4113
S'knowing'
p4114
sS'ikr'
p4115
S'ikr'
p4116
sS'commercial'
p4117
S'commercial'
p4118
sS'@adotwellz'
p4119
S'@adotwellz'
p4120
sS'attention'
p4121
S'attention'
p4122
sS'@tyrese'
p4123
S'@tyrese'
p4124
sS'nuthin'
p4125
S'nothing'
p4126
sS'effed'
p4127
S'fucked'
p4128
sS'2more'
p4129
S'2more'
p4130
sS'leo'
p4131
S'leo'
p4132
sS'_______'
p4133
S'_______'
p4134
sS'both'
p4135
S'both'
p4136
sS'c'
p4137
g4137
sS'last'
p4138
S'last'
p4139
sS'thou'
p4140
S'thou'
p4141
sS"wouldn't"
p4142
S"wouldn't"
p4143
sS'barely'
p4144
S'barely'
p4145
sS'#goodsh'
p4146
S'#goodsh'
p4147
sS'connection'
p4148
S'connection'
p4149
sS'alot'
p4150
S'alot'
p4151
sS'witch'
p4152
S'witch'
p4153
sS'whole'
p4154
S'whole'
p4155
sS'liked'
p4156
S'liked'
p4157
sS'headed'
p4158
S'headed'
p4159
sS'battery'
p4160
S'battery'
p4161
sS'sweet'
p4162
S'sweet'
p4163
sS'others'
p4164
S'others'
p4165
sS'dudes'
p4166
S'dudes'
p4167
sS'megapixel'
p4168
S'megapixel'
p4169
sS'simply'
p4170
S'simply'
p4171
sS'pujari'
p4172
S'pujari'
p4173
sS'linux'
p4174
S'linux'
p4175
sS'@mcash320'
p4176
S'@mcash320'
p4177
sS'dun'
p4178
S'dun'
p4179
sS'pu'
p4180
S'pu'
p4181
sS'eather'
p4182
S'either'
p4183
sS'hitting'
p4184
S'hitting'
p4185
sS'whoo'
p4186
S'who'
p4187
sS'damn'
p4188
S'damn'
p4189
sS'#tfb'
p4190
S'#tfb'
p4191
sS'maintenance'
p4192
S'maintenance'
p4193
sS'meeting'
p4194
S'meeting'
p4195
sS'empty'
p4196
S'empty'
p4197
sS'@nolansland'
p4198
S'@nolansland'
p4199
sS'sweetheart'
p4200
S'sweetheart'
p4201
sS'flight'
p4202
S'flight'
p4203
sS'gay'
p4204
S'gay'
p4205
sS'sending'
p4206
S'sending'
p4207
sS'chatted'
p4208
S'chatted'
p4209
sS'gat'
p4210
S'got'
p4211
sS'lokeren'
p4212
S'lokeren'
p4213
sS'else'
p4214
S'else'
p4215
sS'whatever'
p4216
S'whatever'
p4217
sS'lives'
p4218
S'lives'
p4219
sS'demand'
p4220
S'demand'
p4221
sS'fansign'
p4222
S'fansign'
p4223
sS'look'
p4224
S'look'
p4225
sS'juice'
p4226
S'juice'
p4227
sS'bill'
p4228
S'bill'
p4229
sS'convo'
p4230
S'conversation'
p4231
sS'@xxplicitang3l'
p4232
S'@xxplicitang3l'
p4233
sS'rope'
p4234
S'rope'
p4235
sS'heeyy'
p4236
S'hey'
p4237
sS'while'
p4238
S'while'
p4239
sS'sexuality'
p4240
S'sexuality'
p4241
sS'@bdutt'
p4242
S'@bdutt'
p4243
sS'leaning'
p4244
S'leaning'
p4245
sS'fun'
p4246
S'fun'
p4247
sS'fleet'
p4248
S'fleet'
p4249
sS'engineers'
p4250
S'engineers'
p4251
sS'hoping'
p4252
S'hoping'
p4253
sS'century'
p4254
S'century'
p4255
sS'dotting'
p4256
S'dotting'
p4257
sS'thiis'
p4258
S'this'
p4259
sS'@sboulton'
p4260
S'@sboulton'
p4261
sS'ready'
p4262
S'ready'
p4263
sS'nappi'
p4264
S'nappi'
p4265
sS'funny'
p4266
S'funny'
p4267
sS'raiders'
p4268
S'raiders'
p4269
sS'dland'
p4270
S'dland'
p4271
sS'anymore'
p4272
S'anymore'
p4273
sS'gedda-b'
p4274
S'gedda-b'
p4275
sS'@josie_bieber'
p4276
S'@josie_bieber'
p4277
sS'mos'
p4278
S'most'
p4279
sS'wierd'
p4280
S'weird'
p4281
sS'9'
p4282
g4282
sS'higher'
p4283
S'higher'
p4284
sS'windmill'
p4285
S'windmill'
p4286
sS'iight'
p4287
S'right'
p4288
sS'used'
p4289
S'used'
p4290
sS'snappin'
p4291
S'snapping'
p4292
sS'http://bit.ly/a0trsp'
p4293
S'http://bit.ly/a0trsp'
p4294
sS'@tha_dreamer'
p4295
S'@tha_dreamer'
p4296
sS'yesterday'
p4297
S'yesterday'
p4298
sS'http://plixi.com/p/52769683'
p4299
S'http://plixi.com/p/52769683'
p4300
sS'000'
p4301
S'000'
p4302
sS'moving'
p4303
S'moving'
p4304
sS'cleaning'
p4305
S'cleaning'
p4306
sS'espncricinfo'
p4307
S'espncricinfo'
p4308
sS'possesion'
p4309
S'possession'
p4310
sS'@lyricallynicee'
p4311
S'@lyricallynicee'
p4312
sS'kno'
p4313
S'know'
p4314
sS'mobi'
p4315
S'mobile'
p4316
sS'huyy'
p4317
S'huyy'
p4318
sS'@bigkenof334mobb'
p4319
S'@bigkenof334mobb'
p4320
sS'@bossacafez'
p4321
S'@bossacafez'
p4322
sS'spent'
p4323
S'spent'
p4324
sS'honor'
p4325
S'honor'
p4326
sS'person'
p4327
S'person'
p4328
sS'y'
p4329
S'why'
p4330
sS'traffic'
p4331
S'traffic'
p4332
sS'chemistry'
p4333
S'chemistry'
p4334
sS'loveeee'
p4335
S'love'
p4336
sS'spend'
p4337
S'spend'
p4338
sS'mom'
p4339
S'mom'
p4340
sS'theee'
p4341
S'the'
p4342
sS'@bizzel_rbm'
p4343
S'@bizzel_rbm'
p4344
sS'distracting'
p4345
S'distracting'
p4346
sS'thaddeus'
p4347
S'thaddeus'
p4348
sS'cocky'
p4349
S'cocky'
p4350
sS'using'
p4351
S'using'
p4352
sS'useful'
p4353
S'useful'
p4354
sS'selamat'
p4355
S'selamat'
p4356
sS'prince'
p4357
S'prince'
p4358
sS'cut'
p4359
S'cut'
p4360
sS'cus'
p4361
S'because'
p4362
sS'hueh'
p4363
S'hueh'
p4364
sS'cuz'
p4365
S'because'
p4366
sS'http://wp.me/pegpe-703'
p4367
S'http://wp.me/pegpe-703'
p4368
sS'source'
p4369
S'source'
p4370
sS'soooooo'
p4371
S'so'
p4372
sS'appli'
p4373
S'apply'
p4374
sS'cum'
p4375
S'come'
p4376
sS'excited'
p4377
S'excited'
p4378
sS'hates'
p4379
S'hates'
p4380
sS'hater'
p4381
S'hater'
p4382
sS'...'
p4383
S'...'
p4384
sS'victims'
p4385
S'victims'
p4386
sS'big'
p4387
S'big'
p4388
sS'showing'
p4389
S'showing'
p4390
sS'sittin'
p4391
S'sitting'
p4392
sS'beggin'
p4393
S'begging'
p4394
sS'lovin'
p4395
S'loving'
p4396
sS'shitty'
p4397
S'shitty'
p4398
sS'game'
p4399
S'game'
p4400
sS'bit'
p4401
S'bit'
p4402
sS'biq'
p4403
S'big'
p4404
sS'knock'
p4405
S'knock'
p4406
sS'shuddup'
p4407
S'shuddup'
p4408
sS'stylist'
p4409
S'stylist'
p4410
sS'message'
p4411
S'message'
p4412
sS'eer'
p4413
S'here'
p4414
sS'@seungwhore'
p4415
S'@seungwhore'
p4416
sS'exausted'
p4417
S'exausted'
p4418
sS'keke'
p4419
S'keke'
p4420
sS'tribes'
p4421
S'tribes'
p4422
sS'mzkee'
p4423
S'mzkee'
p4424
sS'@tai_33'
p4425
S'@tai_33'
p4426
sS'bwahahahahah'
p4427
S'bwahahahahah'
p4428
sS'google'
p4429
S'google'
p4430
sS'partying'
p4431
S'partying'
p4432
sS'often'
p4433
S'often'
p4434
sS'fucking'
p4435
S'fucking'
p4436
sS'goddamn'
p4437
S'goddamn'
p4438
sS'1st'
p4439
S'first'
p4440
sS'some'
p4441
S'some'
p4442
sS'back'
p4443
S'back'
p4444
sS'mooned'
p4445
S'mooned'
p4446
sS'b4'
p4447
S'before'
p4448
sS'marker'
p4449
S'marker'
p4450
sS'towards'
p4451
S'towards'
p4452
sS'somr'
p4453
S'some'
p4454
sS'sheesh'
p4455
S'sheesh'
p4456
sS'@follow_2pm'
p4457
S'@follow_2pm'
p4458
sS'@sutton_q'
p4459
S'@sutton_q'
p4460
sS'pet'
p4461
S'pet'
p4462
sS'decision'
p4463
S'decision'
p4464
sS'finge'
p4465
S'finger'
p4466
sS'http://bit.ly/c8lkx5'
p4467
S'http://bit.ly/c8lkx5'
p4468
sS'lara'
p4469
S'lara'
p4470
sS'#samelanguagesubtitling'
p4471
S'#samelanguagesubtitling'
p4472
sS'newww'
p4473
S'new'
p4474
sS'anne'
p4475
S'anne'
p4476
sS'epic'
p4477
S'epic'
p4478
sS'prob'
p4479
S'problem'
p4480
sS't'
p4481
g4481
sS'be'
p4482
S'be'
p4483
sS'bf'
p4484
S'boyfriend'
p4485
sS'bg'
p4486
S'background'
p4487
sS'eating'
p4488
S'eating'
p4489
sS'bb'
p4490
S'baby'
p4491
sS'bc'
p4492
S'because'
p4493
sS'word'
p4494
S'word'
p4495
sS'bn'
p4496
S'been'
p4497
sS'lose'
p4498
S'lose'
p4499
sS'bh'
p4500
S'bh'
p4501
sS'bt'
p4502
S'but'
p4503
sS'santa'
p4504
S'santa'
p4505
sS'bs'
p4506
S'bullshit'
p4507
sS'@meo_unothing'
p4508
S'@meo_unothing'
p4509
sS'by'
p4510
S'by'
p4511
sS'plott'
p4512
S'plot'
p4513
sS'anything'
p4514
S'anything'
p4515
sS'idt'
p4516
S'idt'
p4517
sS"mcdonald's"
p4518
S"mcdonald's"
p4519
sS'75'
p4520
S'75'
p4521
sS'awwwh'
p4522
S'awwwh'
p4523
sS'http://youtu.be/thbsxormooq?a'
p4524
S'http://youtu.be/thbsxormooq?a'
p4525
sS'idk'
p4526
S'idk'
p4527
sS'wanna'
p4528
S'wanna'
p4529
sS'seeing'
p4530
S'seeing'
p4531
sS'every1'
p4532
S'everyone'
p4533
sS'retweeted'
p4534
S'retweeted'
p4535
sS'mommy'
p4536
S'mommy'
p4537
sS'owerrrr'
p4538
S'ow'
p4539
sS'services'
p4540
S'services'
p4541
sS'because'
p4542
S'because'
p4543
sS'ohio'
p4544
S'ohio'
p4545
sS'cho'
p4546
S'your'
p4547
sS'@me'
p4548
S'@me'
p4549
sS'few'
p4550
S'few'
p4551
sS'spending'
p4552
S'spending'
p4553
sS'xoxo'
p4554
S'xoxo'
p4555
sS'long'
p4556
S'long'
p4557
sS'doubt'
p4558
S'doubt'
p4559
sS'#random'
p4560
S'#random'
p4561
sS'http://4ms.me/akuxmi'
p4562
S'http://4ms.me/akuxmi'
p4563
sS'forward'
p4564
S'forward'
p4565
sS'walls'
p4566
S'walls'
p4567
sS':'
p4568
g4568
sS'@j_pope24'
p4569
S'@j_pope24'
p4570
sS'scared'
p4571
S'scared'
p4572
sS'himself'
p4573
S'himself'
p4574
sS'blockin'
p4575
S'blocking'
p4576
sS'priddis'
p4577
S'priddis'
p4578
sS'poster'
p4579
S'poster'
p4580
sS'boys'
p4581
S'boys'
p4582
sS'boyt'
p4583
S'about'
p4584
sS'hopes'
p4585
S'hopes'
p4586
sS'don'
p4587
S'don'
p4588
sS'posted'
p4589
S'posted'
p4590
sS'info'
p4591
S'info'
p4592
sS'fics'
p4593
S'fictions'
p4594
sS'biggie'
p4595
S'biggie'
p4596
sS'skull'
p4597
S'skull'
p4598
sS'uz'
p4599
S'use'
p4600
sS'uu'
p4601
S'you'
p4602
sS'@bedstuygab'
p4603
S'@bedstuygab'
p4604
sS'up'
p4605
S'up'
p4606
sS'us'
p4607
S'us'
p4608
sS'ur'
p4609
S'ur'
p4610
sS'clips'
p4611
S'clips'
p4612
sS'mobile'
p4613
S'mobile'
p4614
sS'@nerdykidxd'
p4615
S'@nerdykidxd'
p4616
sS'z'
p4617
g4617
sS'called'
p4618
S'called'
p4619
sS'@iamjessica84'
p4620
S'@iamjessica84'
p4621
sS'sometimes'
p4622
S'sometimes'
p4623
sS'freak'
p4624
S'freak'
p4625
sS'adults'
p4626
S'adults'
p4627
sS'stillz'
p4628
S'stillz'
p4629
sS'reallllly'
p4630
S'really'
p4631
sS'cowboys'
p4632
S'cowboys'
p4633
sS'#fail'
p4634
S'#fail'
p4635
sS'comming'
p4636
S'coming'
p4637
sS'monsta'
p4638
S'monsta'
p4639
sS'warning'
p4640
S'warning'
p4641
sS'#ifb'
p4642
S'#ifb'
p4643
sS'chat'
p4644
S'chat'
p4645
sS'field'
p4646
S'field'
p4647
sS'stripper'
p4648
S'stripper'
p4649
sS'#tt'
p4650
S'#tt'
p4651
sS'randy'
p4652
S'randy'
p4653
sS'nah'
p4654
S'no'
p4655
sS'realest'
p4656
S'realest'
p4657
sS'@nicciwrite'
p4658
S'@nicciwrite'
p4659
sS'tard'
p4660
S'retard'
p4661
sS'afford'
p4662
S'afford'
p4663
sS'nap'
p4664
S'nap'
p4665
sS'naw'
p4666
S'now'
p4667
sS'@monicawhaat'
p4668
S'@monicawhaat'
p4669
sS'nice'
p4670
S'nice'
p4671
sS'http://t.co/gyweubm'
p4672
S'http://t.co/gyweubm'
p4673
sS'draw'
p4674
S'draw'
p4675
sS'clean'
p4676
S'clean'
p4677
sS'gameday'
p4678
S'gameday'
p4679
sS'missin'
p4680
S'missing'
p4681
sS'lens'
p4682
S'lens'
p4683
sS'du'
p4684
S'do'
p4685
sS'lunch'
p4686
S'lunch'
p4687
sS'@miguelmartinez'
p4688
S'@miguelmartinez'
p4689
sS'dolla'
p4690
S'dollar'
p4691
sS'lang'
p4692
S'lang'
p4693
sS'#mswx'
p4694
S'#mswx'
p4695
sS'texted'
p4696
S'texted'
p4697
sS'vick'
p4698
S'vick'
p4699
sS'age'
p4700
S'age'
p4701
sS'esp'
p4702
S'especially'
p4703
sS'youtube'
p4704
S'youtube'
p4705
sS"she'd"
p4706
S"she'd"
p4707
sS'@lindsaysellors'
p4708
S'@lindsaysellors'
p4709
sS'feelign'
p4710
S'feeling'
p4711
sS'ashton'
p4712
S'ashton'
p4713
sS'2008'
p4714
S'2008'
p4715
sS'waait'
p4716
S'wait'
p4717
sS'kickin'
p4718
S'kicking'
p4719
sS'once'
p4720
S'once'
p4721
sS'@vict_rs'
p4722
S'@vict_rs'
p4723
sS'gt'
p4724
S'got'
p4725
sS'@dexthemagician'
p4726
S'@dexthemagician'
p4727
sS'isay'
p4728
S'isay'
p4729
sS'#itsfunnyhow'
p4730
S'#itsfunnyhow'
p4731
sS'issued'
p4732
S'issued'
p4733
sS'gainesville'
p4734
S'gainesville'
p4735
sS'gf'
p4736
S'girlfriend'
p4737
sS'chowder'
p4738
S'chowder'
p4739
sS'freakin'
p4740
S'freaking'
p4741
sS'go'
p4742
S'go'
p4743
sS'gossip'
p4744
S'gossip'
p4745
sS'aquired'
p4746
S'acquired'
p4747
sS'chillin'
p4748
S'chilling'
p4749
sS'issues'
p4750
S'issues'
p4751
sS'@raerevelry'
p4752
S'@raerevelry'
p4753
sS'@jd_bieber_ger'
p4754
S'@jd_bieber_ger'
p4755
sS'baseball'
p4756
S'baseball'
p4757
sS'@daddy_macc'
p4758
S'@daddy_macc'
p4759
sS'fried'
p4760
S'fried'
p4761
sS'young'
p4762
S'young'
p4763
sS'send'
p4764
S'send'
p4765
sS'nose'
p4766
S'nose'
p4767
sS'@despicablelee'
p4768
S'@despicablelee'
p4769
sS'insya'
p4770
S'insya'
p4771
sS'helps'
p4772
S'helps'
p4773
sS'@jimbobwolfman'
p4774
S'@jimbobwolfman'
p4775
sS'maryland'
p4776
S'maryland'
p4777
sS'fone'
p4778
S'phone'
p4779
sS'uploaded'
p4780
S'uploaded'
p4781
sS'@treklab1'
p4782
S'@treklab1'
p4783
sS'dreaming'
p4784
S'dreaming'
p4785
sS'mouf'
p4786
S'mouth'
p4787
sS'outside'
p4788
S'outside'
p4789
sS'#ff'
p4790
S'#ff'
p4791
sS'fuun'
p4792
S'fun'
p4793
sS'continues'
p4794
S'continues'
p4795
sS'http://yearbook.com/a/p7542'
p4796
S'http://yearbook.com/a/p7542'
p4797
sS'schedule'
p4798
S'schedule'
p4799
sS'niqqa'
p4800
S'nigger'
p4801
sS'@dinerojones'
p4802
S'@dinerojones'
p4803
sS'@prissypriss24'
p4804
S'@prissypriss24'
p4805
sS'facebook'
p4806
S'facebook'
p4807
sS'sometimesz'
p4808
S'sometimes'
p4809
sS'telling'
p4810
S'telling'
p4811
sS'lerman'
p4812
S'lerman'
p4813
sS'punkass'
p4814
S'punkass'
p4815
sS'chiick'
p4816
S'chick'
p4817
sS'stiff'
p4818
S'stiff'
p4819
sS'gettim'
p4820
S'getting'
p4821
sS'lyke'
p4822
S'like'
p4823
sS'marry'
p4824
S'marry'
p4825
sS'gettin'
p4826
S'getting'
p4827
sS'try'
p4828
S'try'
p4829
sS'@single_mar'
p4830
S'@single_mar'
p4831
sS'ahahahaha'
p4832
S'ahahahaha'
p4833
sS'havent'
p4834
S"haven't"
p4835
sS'tru'
p4836
S'TRUE'
p4837
sS'challenge'
p4838
S'challenge'
p4839
sS'booty'
p4840
S'booty'
p4841
sS'khalifa'
p4842
S'khalifa'
p4843
sS'n__n'
p4844
S'n__n'
p4845
sS'friiied'
p4846
S'fried'
p4847
sS'itailian'
p4848
S'Italian'
p4849
sS'soul'
p4850
S'soul'
p4851
sS'jump'
p4852
S'jump'
p4853
sS'video'
p4854
S'video'
p4855
sS'ummm'
p4856
S'ummm'
p4857
sS'plays'
p4858
S'plays'
p4859
sS'power'
p4860
S'power'
p4861
sS'kris'
p4862
S'kris'
p4863
sS'fine'
p4864
S'fine'
p4865
sS'@chrizziichris'
p4866
S'@chrizziichris'
p4867
sS'playe'
p4868
S'player'
p4869
sS'#subtweet'
p4870
S'#subtweet'
p4871
sS'#posin'
p4872
S'#posin'
p4873
sS'flowing'
p4874
S'flowing'
p4875
sS';'
p4876
g4876
sS'bird'
p4877
S'bird'
p4878
sS'body'
p4879
S'body'
p4880
sS'@xoneroxo'
p4881
S'@xoneroxo'
p4882
sS'newyork'
p4883
S'newyork'
p4884
sS'@wet_dream'
p4885
S'@wet_dream'
p4886
sS'pushing'
p4887
S'pushing'
p4888
sS'follwers'
p4889
S'followers'
p4890
sS'industr'
p4891
S'industry'
p4892
sS'eminem'
p4893
S'eminem'
p4894
sS'@kevinwoo91'
p4895
S'@kevinwoo91'
p4896
sS'following'
p4897
S'following'
p4898
sS'douches'
p4899
S'douches'
p4900
sS'http://tl.gd/6l13t0'
p4901
S'http://tl.gd/6l13t0'
p4902
sS'let'
p4903
S'let'
p4904
sS'@marlonwayans'
p4905
S'@marlonwayans'
p4906
sS'meet'
p4907
S'meet'
p4908
sS"god's"
p4909
S"god's"
p4910
sS'sexy'
p4911
S'sexy'
p4912
sS'cyclist'
p4913
S'cyclist'
p4914
sS'great'
p4915
S'great'
p4916
sS'@skbabyy'
p4917
S'@skbabyy'
p4918
sS'talent'
p4919
S'talent'
p4920
sS'skool'
p4921
S'school'
p4922
sS'33'
p4923
S'33'
p4924
sS'30'
p4925
S'30'
p4926
sS'whtd'
p4927
S'what'
p4928
sS'@ervinbaldwin94'
p4929
S'@ervinbaldwin94'
p4930
sS"weren't"
p4931
S"weren't"
p4932
sS'nitee'
p4933
S'night'
p4934
sS'@kiahampton'
p4935
S'@kiahampton'
p4936
sS'relatives'
p4937
S'relatives'
p4938
sS'makes'
p4939
S'makes'
p4940
sS'occ'
p4941
S'occ'
p4942
sS'thats'
p4943
S"that's"
p4944
sS'apple'
p4945
S'apple'
p4946
sS'win'
p4947
S'win'
p4948
sS'app'
p4949
S'app'
p4950
sS'wil'
p4951
S'will'
p4952
sS'dedicated'
p4953
S'dedicated'
p4954
sS'333'
p4955
S'333'
p4956
sS'wit'
p4957
S'wit'
p4958
sS'http://bit.ly/thebook'
p4959
S'http://bit.ly/thebook'
p4960
sS'@ihatekatstacks'
p4961
S'@ihatekatstacks'
p4962
sS'singing'
p4963
S'singing'
p4964
sS'wiz'
p4965
S'with'
p4966
sS'@_chynadollx'
p4967
S'@_chynadollx'
p4968
sS'@mannismyname'
p4969
S'@mannismyname'
p4970
sS'strapped'
p4971
S'strapped'
p4972
sS'use'
p4973
S'use'
p4974
sS'from'
p4975
S'from'
p4976
sS'@iridetongue'
p4977
S'@iridetongue'
p4978
sS'@jaysonnotjason'
p4979
S'@jaysonnotjason'
p4980
sS'next'
p4981
S'next'
p4982
sS'raps'
p4983
S'raps'
p4984
sS'camera'
p4985
S'camera'
p4986
sS'd4tts'
p4987
S"that's"
p4988
sS'\xef\xbf\xa2'
p4989
S'\xef\xbf\xa2'
p4990
sS'choiceremoved'
p4991
S'choiceremoved'
p4992
sS'stong'
p4993
S'strong'
p4994
sS'babe'
p4995
S'babe'
p4996
sS'upcoming'
p4997
S'upcoming'
p4998
sS'sister'
p4999
S'sister'
p5000
sS'train'
p5001
S'train'
p5002
sS'sharply'
p5003
S'sharply'
p5004
sS'baby'
p5005
S'baby'
p5006
sS'4am'
p5007
S'4am'
p5008
sS'tearing'
p5009
S'tearing'
p5010
sS'women'
p5011
S'women'
p5012
sS'customer'
p5013
S'customer'
p5014
sS'@iagreewithchan'
p5015
S'@iagreewithchan'
p5016
sS'balls'
p5017
S'balls'
p5018
sS'wearin'
p5019
S'wearing'
p5020
sS'f'
p5021
g5021
sS'this'
p5022
S'this'
p5023
sS'ride'
p5024
S'ride'
p5025
sS'@prettii_black'
p5026
S'@prettii_black'
p5027
sS'oct'
p5028
S'oct'
p5029
sS'thinkng'
p5030
S'thinking'
p5031
sS'anywhere'
p5032
S'anywhere'
p5033
sS'#realshit'
p5034
S'#realshit'
p5035
sS'aight'
p5036
S'alright'
p5037
sS'thuggin'
p5038
S'thugging'
p5039
sS'puja'
p5040
S'puja'
p5041
sS'didnt'
p5042
S"didn't"
p5043
sS'performed'
p5044
S'performed'
p5045
sS'@angelfreeatlast'
p5046
S'@angelfreeatlast'
p5047
sS'muaha'
p5048
S'muaha'
p5049
sS'yeaaaa'
p5050
S'yeaaaa'
p5051
sS'geez'
p5052
S'geez'
p5053
sS'expierince'
p5054
S'experience'
p5055
sS'halloween'
p5056
S'halloween'
p5057
sS'tay'
p5058
S'tay'
p5059
sS'pieces'
p5060
S'pieces'
p5061
sS'high'
p5062
S'high'
p5063
sS'blvd'
p5064
S'blvd'
p5065
sS'something'
p5066
S'something'
p5067
sS'seriouslyyyy'
p5068
S'seriously'
p5069
sS'bones'
p5070
S'bones'
p5071
sS'dj'
p5072
S'dj'
p5073
sS'sis'
p5074
S'sis'
p5075
sS'sit'
p5076
S'sit'
p5077
sS'#tdl'
p5078
S'#tdl'
p5079
sS'sia'
p5080
S'sia'
p5081
sS'yayyyyy'
p5082
S'yay'
p5083
sS'animal'
p5084
S'animal'
p5085
sS'ilove'
p5086
S'ilove'
p5087
sS'instead'
p5088
S'instead'
p5089
sS'comedy'
p5090
S'comedy'
p5091
sS'afp'
p5092
S'afp'
p5093
sS'sin'
p5094
S'sin'
p5095
sS'stock'
p5096
S'stock'
p5097
sS'profile'
p5098
S'profile'
p5099
sS'de'
p5100
S'the'
p5101
sS'@djprostyle'
p5102
S'@djprostyle'
p5103
sS'monica'
p5104
S'monica'
p5105
sS'stop'
p5106
S'stop'
p5107
sS'waters'
p5108
S'waters'
p5109
sS'act'
p5110
S'act'
p5111
sS'lmfaoo'
p5112
S'lmfaoo'
p5113
sS'dc'
p5114
S'dc'
p5115
sS'homegirls'
p5116
S'homegirls'
p5117
sS'lmfaoooooooooooooooooooooooooooooooooooooooooooooooo'
p5118
S'lmfaoooooooooooooooooooooooooooooooooooooooooooooooo'
p5119
sS'icantt'
p5120
S'icantt'
p5121
sS'men'
p5122
S'men'
p5123
sS'comprehends'
p5124
S'comprehends'
p5125
sS'hahahaha'
p5126
S'hahahaha'
p5127
sS'@punkrocka21'
p5128
S'@punkrocka21'
p5129
sS'somethin'
p5130
S'something'
p5131
sS'realized'
p5132
S'realized'
p5133
sS'chasing'
p5134
S'chasing'
p5135
sS'whistle'
p5136
S'whistle'
p5137
sS'serios'
p5138
S'serious'
p5139
sS'http://bit.ly/cbo6ws'
p5140
S'http://bit.ly/cbo6ws'
p5141
sS'http://t.co/bwlwver'
p5142
S'http://t.co/bwlwver'
p5143
sS'heyyy'
p5144
S'hey'
p5145
sS'#winnipeg'
p5146
S'#winnipeg'
p5147
sS'wildin'
p5148
S'wilding'
p5149
sS'@kori_k_'
p5150
S'@kori_k_'
p5151
sS'@mnbyo'
p5152
S'@mnbyo'
p5153
sS'@chanitafoster'
p5154
S'@chanitafoster'
p5155
sS'move'
p5156
S'move'
p5157
sS'vma'
p5158
S'vma'
p5159
sS'cmputr'
p5160
S'computer'
p5161
sS'afterall'
p5162
S'afterall'
p5163
sS"won't"
p5164
S"won't"
p5165
sS'looks'
p5166
S'looks'
p5167
sS'quake'
p5168
S'quake'
p5169
sS'bunch'
p5170
S'bunch'
p5171
sS'perfect'
p5172
S'perfect'
p5173
sS'underwater'
p5174
S'underwater'
p5175
sS'le'
p5176
S'le'
p5177
sS'la'
p5178
S'la'
p5179
sS'@mrsalexburnham'
p5180
S'@mrsalexburnham'
p5181
sS'#memories'
p5182
S'#memories'
p5183
sS'@ohmeranda'
p5184
S'@ohmeranda'
p5185
sS'lt'
p5186
S'lt'
p5187
sS'@sugarplum125'
p5188
S'@sugarplum125'
p5189
sS'choose'
p5190
S'choose'
p5191
sS'bye'
p5192
S'bye'
p5193
sS'<'
p5194
g5194
sS'ly'
p5195
S'ly'
p5196
sS'dad'
p5197
S'dad'
p5198
sS'hyd'
p5199
S'hyd'
p5200
sS'crash'
p5201
S'crash'
p5202
sS'camino'
p5203
S'camino'
p5204
sS'toshiba'
p5205
S'toshiba'
p5206
sS'dat'
p5207
S'that'
p5208
sS'#ukno'
p5209
S'#ukno'
p5210
sS'front'
p5211
S'front'
p5212
sS'@nnekcity'
p5213
S'@nnekcity'
p5214
sS'day'
p5215
S'day'
p5216
sS"@ibanglse's"
p5217
S"@ibanglse's"
p5218
sS'#aidswalk'
p5219
S'#aidswalk'
p5220
sS'holdd'
p5221
S'hold'
p5222
sS't________t'
p5223
S't________t'
p5224
sS'@missktsuga'
p5225
S'@missktsuga'
p5226
sS'mode'
p5227
S'mode'
p5228
sS'@horneymedia'
p5229
S'@horneymedia'
p5230
sS'crossing'
p5231
S'crossing'
p5232
sS'esteem'
p5233
S'esteem'
p5234
sS'covina'
p5235
S'covina'
p5236
sS'@bossdaee_nov23'
p5237
S'@bossdaee_nov23'
p5238
sS'doing'
p5239
S'doing'
p5240
sS'shoppe'
p5241
S'shop'
p5242
sS'@joinicole99'
p5243
S'@joinicole99'
p5244
sS'10250'
p5245
S'10250'
p5246
sS'our'
p5247
S'our'
p5248
sS'douchesquad'
p5249
S'douchesquad'
p5250
sS'special'
p5251
S'special'
p5252
sS'out'
p5253
S'out'
p5254
sS'category'
p5255
S'category'
p5256
sS'@youtube'
p5257
S'@youtube'
p5258
sS"'"
p5259
g5259
sS'bag'
p5260
S'bag'
p5261
sS'pre-ordered'
p5262
S'pre-ordered'
p5263
sS'crembaathhhh'
p5264
S'crembaathhhh'
p5265
sS'boboy'
p5266
S'boboy'
p5267
sS'vcu'
p5268
S'vcu'
p5269
sS'rec'
p5270
S'recorder'
p5271
sS'waay'
p5272
S'way'
p5273
sS'cause'
p5274
S'cause'
p5275
sS'red'
p5276
S'red'
p5277
sS'model'
p5278
S'model'
p5279
sS'shut'
p5280
S'shut'
p5281
sS'uppp'
p5282
S'up'
p5283
sS'ipod'
p5284
S'ipod'
p5285
sS'hatas'
p5286
S'haters'
p5287
sS'g0t'
p5288
S'got'
p5289
sS'york'
p5290
S'york'
p5291
sS'early'
p5292
S'early'
p5293
sS'scary'
p5294
S'scary'
p5295
sS'shuld'
p5296
S'should'
p5297
sS'g'
p5298
g5298
sS'could'
p5299
S'could'
p5300
sS'blahhh'
p5301
S'blahhh'
p5302
sS'paintball'
p5303
S'paintball'
p5304
sS'times'
p5305
S'times'
p5306
sS'@adriannaohhyess'
p5307
S'@adriannaohhyess'
p5308
sS'hunni'
p5309
S'honey'
p5310
sS'timee'
p5311
S'time'
p5312
sS'coult'
p5313
S'could'
p5314
sS'@parishilton'
p5315
S'@parishilton'
p5316
sS'hawtness'
p5317
S'hotness'
p5318
sS'@mama_cali'
p5319
S'@mama_cali'
p5320
sS'blogger'
p5321
S'blogger'
p5322
sS'4get'
p5323
S'forget'
p5324
sS'pgh'
p5325
S'pgh'
p5326
sS'hey'
p5327
S'hey'
p5328
sS'date'
p5329
S'date'
p5330
sS'@serenebeauty826'
p5331
S'@serenebeauty826'
p5332
sS'bitch'
p5333
S'bitch'
p5334
sS'20yr'
p5335
S'20yr'
p5336
sS'@christinacanary'
p5337
S'@christinacanary'
p5338
sS'hehe'
p5339
S'hehe'
p5340
sS'justins'
p5341
S"justin's"
p5342
sS"doesn't"
p5343
S"doesn't"
p5344
sS'monkey'
p5345
S'monkey'
p5346
sS'los'
p5347
S'los'
p5348
sS'myspace'
p5349
S'myspace'
p5350
sS'accent'
p5351
S'accent'
p5352
sS'their'
p5353
S'their'
p5354
sS'http://tl.gd/5vu7no'
p5355
S'http://tl.gd/5vu7no'
p5356
sS'@michellenwosu'
p5357
S'@michellenwosu'
p5358
sS'final'
p5359
S'final'
p5360
sS'@bluvisions'
p5361
S'@bluvisions'
p5362
sS'smeaty'
p5363
S'smeaty'
p5364
sS'stars'
p5365
S'stars'
p5366
sS'wawes'
p5367
S'waves'
p5368
sS'nobody'
p5369
S'nobody'
p5370
sS'@kj0203'
p5371
S'@kj0203'
p5372
sS'@mg0odb'
p5373
S'@mg0odb'
p5374
sS'twords'
p5375
S'towards'
p5376
sS'bieber'
p5377
S'bieber'
p5378
sS'anyones'
p5379
S"anyone's"
p5380
sS'haven'
p5381
S'haven'
p5382
sS'neck'
p5383
S'neck'
p5384
sS'lovee'
p5385
S'love'
p5386
sS'@millanasnow'
p5387
S'@millanasnow'
p5388
sS'photograph'
p5389
S'photograph'
p5390
sS'bel'
p5391
S'bel'
p5392
sS'@illusionnp'
p5393
S'@illusionnp'
p5394
sS'split'
p5395
S'split'
p5396
sS'cricinfo'
p5397
S'cricinfo'
p5398
sS'see'
p5399
S'see'
p5400
sS'bed'
p5401
S'bed'
p5402
sS'g-6'
p5403
S'g-6'
p5404
sS'@khunnie0624'
p5405
S'@khunnie0624'
p5406
sS'@brodinski'
p5407
S'@brodinski'
p5408
sS'exclusive'
p5409
S'exclusive'
p5410
sS'kissin'
p5411
S'kissing'
p5412
sS'loves'
p5413
S'loves'
p5414
sS'sr'
p5415
S'sr'
p5416
sS'inhouse'
p5417
S'inhouse'
p5418
sS'http://twitcam.com/1zv0k)'
p5419
S'http://twitcam.com/1zv0k)'
p5420
sS'clit'
p5421
S'clit'
p5422
sS'@somuchsoul'
p5423
S'@somuchsoul'
p5424
sS'comfortable'
p5425
S'comfortable'
p5426
sS'tonight'
p5427
S'tonight'
p5428
sS'@nicciisneechee'
p5429
S'@nicciisneechee'
p5430
sS'fukk'
p5431
S'fuck'
p5432
sS'have'
p5433
S'have'
p5434
sS'need'
p5435
S'need'
p5436
sS'clearly'
p5437
S'clearly'
p5438
sS'l-knuckles'
p5439
S'l-knuckles'
p5440
sS"let's"
p5441
S"let's"
p5442
sS'congrats'
p5443
S'congratulations'
p5444
sS'@charmaine26'
p5445
S'@charmaine26'
p5446
sS'allergies'
p5447
S'allergies'
p5448
sS'mic'
p5449
S'mic'
p5450
sS'@alinemarie524'
p5451
S'@alinemarie524'
p5452
sS'congratz'
p5453
S'congratulations'
p5454
sS'sexier'
p5455
S'sexier'
p5456
sS'deadlies'
p5457
S'deadlines'
p5458
sS'which'
p5459
S'which'
p5460
sS'@smoovymf'
p5461
S'@smoovymf'
p5462
sS'jail'
p5463
S'jail'
p5464
sS'korean'
p5465
S'korean'
p5466
sS'='
p5467
g5467
sS'soap'
p5468
S'soap'
p5469
sS'plannin'
p5470
S'planning'
p5471
sS'liveeee'
p5472
S'live'
p5473
sS'bitches'
p5474
S'bitches'
p5475
sS'aww'
p5476
S'aww'
p5477
sS'@bishopdonrob'
p5478
S'@bishopdonrob'
p5479
sS'who'
p5480
S'who'
p5481
sS'wht'
p5482
S'what'
p5483
sS'montana'
p5484
S'montana'
p5485
sS'nuisance'
p5486
S'nuisance'
p5487
sS'future'
p5488
S'future'
p5489
sS'why'
p5490
S'why'
p5491
sS'listenting'
p5492
S'listening'
p5493
sS'kant'
p5494
S'kant'
p5495
sS'upset'
p5496
S'upset'
p5497
sS'thanksgiving'
p5498
S'thanksgiving'
p5499
sS'face'
p5500
S'face'
p5501
sS'looked'
p5502
S'looked'
p5503
sS'whaat'
p5504
S'what'
p5505
sS'2mrw'
p5506
S'tomorrow'
p5507
sS'@ibeatsitup'
p5508
S'@ibeatsitup'
p5509
sS'@raven_elle'
p5510
S'@raven_elle'
p5511
sS'son'
p5512
S'son'
p5513
sS'niea'
p5514
S'near'
p5515
sS'selection'
p5516
S'selection'
p5517
sS'cute'
p5518
S'cute'
p5519
sS'text'
p5520
S'text'
p5521
sS'agreed'
p5522
S'agreed'
p5523
sS'bhee'
p5524
S'be'
p5525
sS'anyway'
p5526
S'anyway'
p5527
sS'hurttss'
p5528
S'hurts'
p5529
sS'bring'
p5530
S'bring'
p5531
sS'shittttt'
p5532
S'shit'
p5533
sS'@domtheglass'
p5534
S'@domtheglass'
p5535
sS'slippin'
p5536
S'slipping'
p5537
sS'tured'
p5538
S'tired'
p5539
sS'#twatching'
p5540
S'#twatching'
p5541
sS'ayee'
p5542
S'ayee'
p5543
sS'jaz'
p5544
S'just'
p5545
sS'nga'
p5546
S'nga'
p5547
sS'('
p5548
g5548
sS'mhmmms'
p5549
S'mhmmms'
p5550
sS'#paintball'
p5551
S'#paintball'
p5552
sS'should'
p5553
S'should'
p5554
sS'jan'
p5555
S'jan'
p5556
sS'#gowashyoass'
p5557
S'#gowashyoass'
p5558
sS'@ibanglse'
p5559
S'@ibanglse'
p5560
sS'combo'
p5561
S'combo'
p5562
sS'appearal'
p5563
S'apparel'
p5564
sS'frankiesanatra'
p5565
S'frankiesanatra'
p5566
sS'matress'
p5567
S'mattress'
p5568
sS'handle'
p5569
S'handle'
p5570
sS'sagittarius'
p5571
S'sagittarius'
p5572
sS'means'
p5573
S'means'
p5574
sS'beat'
p5575
S'beat'
p5576
sS'@therealnayb'
p5577
S'@therealnayb'
p5578
sS'meany'
p5579
S'meany'
p5580
sS'buyed'
p5581
S'buy'
p5582
sS'@young_loso21'
p5583
S'@young_loso21'
p5584
sS'joint'
p5585
S'joint'
p5586
sS'awww'
p5587
S'awww'
p5588
sS'ones'
p5589
S'ones'
p5590
sS'@tsmithonline'
p5591
S'@tsmithonline'
p5592
sS'words'
p5593
S'words'
p5594
sS'years'
p5595
S'years'
p5596
sS'@br0wnie2badd'
p5597
S'@br0wnie2badd'
p5598
sS'smash'
p5599
S'smash'
p5600
sS'sht'
p5601
S'shit'
p5602
sS'ended'
p5603
S'ended'
p5604
sS'married'
p5605
S'married'
p5606
sS'stuff'
p5607
S'stuff'
p5608
sS'@kwazie17'
p5609
S'@kwazie17'
p5610
sS'she'
p5611
S'she'
p5612
sS'@jaywise88sec'
p5613
S'@jaywise88sec'
p5614
sS'tlist'
p5615
S'tlist'
p5616
sS'grab'
p5617
S'grab'
p5618
sS'costume'
p5619
S'costume'
p5620
sS'btw'
p5621
S'btw'
p5622
sS'exists'
p5623
S'exists'
p5624
sS'@phabulous_btch'
p5625
S'@phabulous_btch'
p5626
sS'showdown'
p5627
S'showdown'
p5628
sS'lazy'
p5629
S'lazy'
p5630
sS'breathe'
p5631
S'breathe'
p5632
sS'@skoorb_siwel'
p5633
S'@skoorb_siwel'
p5634
sS'computer'
p5635
S'computer'
p5636
sS'signed'
p5637
S'signed'
p5638
sS'buzzed'
p5639
S'buzzed'
p5640
sS'qta'
p5641
S'qta'
p5642
sS'drivin'
p5643
S'driving'
p5644
sS'raight'
p5645
S'right'
p5646
sS'cold'
p5647
S'cold'
p5648
sS'interview'
p5649
S'interview'
p5650
sS'anti-christ'
p5651
S'anti-christ'
p5652
sS'http://bit.ly/csv4iy'
p5653
S'http://bit.ly/csv4iy'
p5654
sS'@heyjoanna'
p5655
S'@heyjoanna'
p5656
sS'icecream'
p5657
S'icecream'
p5658
sS'state'
p5659
S'state'
p5660
sS'closed'
p5661
S'closed'
p5662
sS'progress'
p5663
S'progress'
p5664
sS'@nappy_gal'
p5665
S'@nappy_gal'
p5666
sS'@shanathemost'
p5667
S'@shanathemost'
p5668
sS'bought'
p5669
S'bought'
p5670
sS'trynna'
p5671
S'trynna'
p5672
sS'jow'
p5673
S'jow'
p5674
sS'supporet'
p5675
S'support'
p5676
sS'twitcon'
p5677
S'twitcon'
p5678
sS'job'
p5679
S'job'
p5680
sS'precious'
p5681
S'precious'
p5682
sS'solace'
p5683
S'solace'
p5684
sS'actual'
p5685
S'actual'
p5686
sS'sniff'
p5687
S'sniff'
p5688
sS'bullshitin'
p5689
S'bullshitting'
p5690
sS'tomarra'
p5691
S'tomorrow'
p5692
sS'career'
p5693
S'career'
p5694
sS'quitter'
p5695
S'quitter'
p5696
sS'taking'
p5697
S'taking'
p5698
sS"he's"
p5699
S"he's"
p5700
sS'drug'
p5701
S'drug'
p5702
sS'@russjacksonpsu'
p5703
S'@russjacksonpsu'
p5704
sS'etc'
p5705
S'etc'
p5706
sS'busted'
p5707
S'busted'
p5708
sS'tlk'
p5709
S'talk'
p5710
sS'retweets'
p5711
S'retweets'
p5712
sS'jersey'
p5713
S'jersey'
p5714
sS'mesoscale'
p5715
S'mesoscale'
p5716
sS'ck'
p5717
S'ck'
p5718
sS'vent'
p5719
S'vent'
p5720
sS'@ladygaga'
p5721
S'@ladygaga'
p5722
sS'wall'
p5723
S'wall'
p5724
sS'cb'
p5725
S'cb'
p5726
sS'tuesday'
p5727
S'tuesday'
p5728
sS'makin'
p5729
S'making'
p5730
sS'walk'
p5731
S'walk'
p5732
sS'laugh'
p5733
S'laugh'
p5734
sS'replying'
p5735
S'replying'
p5736
sS'bbm'
p5737
S'bbm'
p5738
sS'yay'
p5739
S'yay'
p5740
sS'deep'
p5741
S'deep'
p5742
sS"it's"
p5743
S"it's"
p5744
sS'get\xe2'
p5745
S'get\xe2'
p5746
sS'@tamethemone'
p5747
S'@tamethemone'
p5748
sS'quiz'
p5749
S'quiz'
p5750
sS'yal'
p5751
S'yal'
p5752
sS'watchinqq'
p5753
S'watching'
p5754
sS'yah'
p5755
S'your'
p5756
sS'ah'
p5757
S'ah'
p5758
sS'yaa'
p5759
S'you'
p5760
sS"it'd"
p5761
S"it'd"
p5762
sS'>'
p5763
g5763
sS'3yrs'
p5764
S'3yrs'
p5765
sS'pic'
p5766
S'picture'
p5767
sS'noooo'
p5768
S'no'
p5769
sS'@blogger'
p5770
S'@blogger'
p5771
sS'moved'
p5772
S'moved'
p5773
sS'@sincerely_ladie'
p5774
S'@sincerely_ladie'
p5775
sS'hmm'
p5776
S'hmm'
p5777
sS'finished'
p5778
S'finished'
p5779
sS'ao'
p5780
S'ao'
p5781
sS'@thatdamnmaisha'
p5782
S'@thatdamnmaisha'
p5783
sS'smoking'
p5784
S'smoking'
p5785
sS'present'
p5786
S'present'
p5787
sS'holiday'
p5788
S'holiday'
p5789
sS'harder'
p5790
S'harder'
p5791
sS'2010'
p5792
S'2010'
p5793
sS'will'
p5794
S'will'
p5795
sS'gucci'
p5796
S'gucci'
p5797
sS'hahaha'
p5798
S'hahaha'
p5799
sS'@firefightersam7'
p5800
S'@firefightersam7'
p5801
sS'kools'
p5802
S'cools'
p5803
sS'@rizeandshine'
p5804
S'@rizeandshine'
p5805
sS'almost'
p5806
S'almost'
p5807
sS'thur'
p5808
S'thur'
p5809
sS'@randerzzz'
p5810
S'@randerzzz'
p5811
sS'dumbbb'
p5812
S'dumb'
p5813
sS'ave'
p5814
S'ave'
p5815
sS'whore'
p5816
S'whore'
p5817
sS"pippi's"
p5818
S"pippi's"
p5819
sS'@iamchriskiltie'
p5820
S'@iamchriskiltie'
p5821
sS'denial'
p5822
S'denial'
p5823
sS'maannnn'
p5824
S'man'
p5825
sS'fkn'
p5826
S'fucking'
p5827
sS'prettier'
p5828
S'prettier'
p5829
sS')'
p5830
g5830
sS'juan'
p5831
S'juan'
p5832
sS'bishop'
p5833
S'bishop'
p5834
sS'member'
p5835
S'member'
p5836
sS'curiousity'
p5837
S'curiosity'
p5838
sS'wantin'
p5839
S'wanting'
p5840
sS'#celebrityhour'
p5841
S'#celebrityhour'
p5842
sS'party'
p5843
S'party'
p5844
sS'android'
p5845
S'android'
p5846
sS'gets'
p5847
S'gets'
p5848
sS'frnds'
p5849
S'friends'
p5850
sS'http'
p5851
S'http'
p5852
sS'sade'
p5853
S'sade'
p5854
sS'#loc'
p5855
S'#loc'
p5856
sS'1-1'
p5857
S'1-1'
p5858
sS'ion'
p5859
S'ion'
p5860
sS'yoga'
p5861
S'yoga'
p5862
sS'php'
p5863
S'php'
p5864
sS'lecras'
p5865
S'lecras'
p5866
sS'off'
p5867
S'off'
p5868
sS'http://twitpic.com/30jrab'
p5869
S'http://twitpic.com/30jrab'
p5870
sS'i'
p5871
g5871
sS'phat'
p5872
S'fat'
p5873
sS'well'
p5874
S'well'
p5875
sS'fighting'
p5876
S'fighting'
p5877
sS'thought'
p5878
S'thought'
p5879
sS'#espn'
p5880
S'#espn'
p5881
sS'oops'
p5882
S'oops'
p5883
sS'english'
p5884
S'english'
p5885
sS'bicthh'
p5886
S'bitch'
p5887
sS'schl'
p5888
S'school'
p5889
sS'muscle'
p5890
S'muscle'
p5891
sS'44'
p5892
S'44'
p5893
sS'@waterlilyskies'
p5894
S'@waterlilyskies'
p5895
sS'taller'
p5896
S'taller'
p5897
sS'stores'
p5898
S'stores'
p5899
sS'@illgetyuho0ked'
p5900
S'@illgetyuho0ked'
p5901
sS'cried'
p5902
S'cried'
p5903
sS'less'
p5904
S'less'
p5905
sS'moments'
p5906
S'moments'
p5907
sS'@i_am_philly'
p5908
S'@i_am_philly'
p5909
sS'domestic'
p5910
S'domestic'
p5911
sS'#hellnawl'
p5912
S'#hellnawl'
p5913
sS'@millatent'
p5914
S'@millatent'
p5915
sS'not'
p5916
S'not'
p5917
sS'soulja'
p5918
S'soulja'
p5919
sS'rooms'
p5920
S'rooms'
p5921
sS'happiness'
p5922
S'happiness'
p5923
sS'spells'
p5924
S'spells'
p5925
sS'web'
p5926
S'web'
p5927
sS'lmcaaao'
p5928
S'lmcaaao'
p5929
sS'wed'
p5930
S'wed'
p5931
sS'viirgooss'
p5932
S'virgos'
p5933
sS'@harmonymuzik'
p5934
S'@harmonymuzik'
p5935
sS'sky'
p5936
S'sky'
p5937
sS'wen'
p5938
S'wen'
p5939
sS'\\'
p5940
g5940
sS'script'
p5941
S'script'
p5942
sS'add'
p5943
S'add'
p5944
sS'book'
p5945
S'book'
p5946
sS'attractive'
p5947
S'attractive'
p5948
sS'ohhh'
p5949
S'ohhh'
p5950
sS'kick'
p5951
S'kick'
p5952
sS'tests'
p5953
S'tests'
p5954
sS'sonia'
p5955
S'sonia'
p5956
sS'nvr'
p5957
S'never'
p5958
sS'knoe'
p5959
S'know'
p5960
sS'@princebao'
p5961
S'@princebao'
p5962
sS'@mrdirtysays'
p5963
S'@mrdirtysays'
p5964
sS'know'
p5965
S'know'
p5966
sS'mnths'
p5967
S'months'
p5968
sS'press'
p5969
S'press'
p5970
sS'dese'
p5971
S'these'
p5972
sS'nvm'
p5973
S'nvm'
p5974
sS'password'
p5975
S'password'
p5976
sS'like'
p5977
S'like'
p5978
sS'lost'
p5979
S'lost'
p5980
sS'candy'
p5981
S'candy'
p5982
sS'illusion'
p5983
S'illusion'
p5984
sS'exhausted'
p5985
S'exhausted'
p5986
sS'4me'
p5987
S'4me'
p5988
sS'cjyqcp'
p5989
S'cjyqcp'
p5990
sS'@pinkyasumi'
p5991
S'@pinkyasumi'
p5992
sS'chick'
p5993
S'chick'
p5994
sS'works'
p5995
S'works'
p5996
sS'nigga'
p5997
S'nigger'
p5998
sS'twitter'
p5999
S'twitter'
p6000
sS'church'
p6001
S'church'
p6002
sS'alive'
p6003
S'alive'
p6004
sS'hair'
p6005
S'hair'
p6006
sS'holler'
p6007
S'holler'
p6008
sS'shes'
p6009
S'shes'
p6010
sS'home'
p6011
S'home'
p6012
sS'amzn'
p6013
S'amazing'
p6014
sS'peter'
p6015
S'peter'
p6016
sS'wordfued'
p6017
S'wordfued'
p6018
sS'drizzle'
p6019
S'drizzle'
p6020
sS'cyyea'
p6021
S'cyyea'
p6022
sS'happens'
p6023
S'happens'
p6024
sS'tmr'
p6025
S'tomorrow'
p6026
sS'est'
p6027
S'est'
p6028
sS'#9lives'
p6029
S'#9lives'
p6030
sS'http://bit.ly/8y97av'
p6031
S'http://bit.ly/8y97av'
p6032
sS'literally'
p6033
S'literally'
p6034
sS'thaann'
p6035
S'than'
p6036
sS'does'
p6037
S'does'
p6038
sS'happend'
p6039
S'happened'
p6040
sS'earrings'
p6041
S'earrings'
p6042
sS'iphones'
p6043
S"iphone's"
p6044
sS'?'
p6045
g6045
sS'trap'
p6046
S'trap'
p6047
sS'pepper'
p6048
S'pepper'
p6049
sS'supersize'
p6050
S'supersize'
p6051
sS'pasti'
p6052
S'pasti'
p6053
sS'tint'
p6054
S'tint'
p6055
sS'hosp'
p6056
S'hosp'
p6057
sS'motive'
p6058
S'motive'
p6059
sS'mite'
p6060
S'mite'
p6061
sS'aite'
p6062
S'aite'
p6063
sS'about'
p6064
S'about'
p6065
sS'rare'
p6066
S'rare'
p6067
sS'justin'
p6068
S'justin'
p6069
sS'getting'
p6070
S'getting'
p6071
sS'@boywonder1940'
p6072
S'@boywonder1940'
p6073
sS'scott'
p6074
S'scott'
p6075
sS'angeles'
p6076
S'angeles'
p6077
sS'swear'
p6078
S'swear'
p6079
sS'tomm'
p6080
S'tomorrow'
p6081
sS'@tomjaw'
p6082
S'@tomjaw'
p6083
sS'tongue'
p6084
S'tongue'
p6085
sS'warner'
p6086
S'warner'
p6087
sS'documentary'
p6088
S'documentary'
p6089
sS'shoppin'
p6090
S'shopping'
p6091
sS'warranty'
p6092
S'warranty'
p6093
sS'own'
p6094
S'own'
p6095
sS'bedddd'
p6096
S'bed'
p6097
sS'pussy'
p6098
S'pussy'
p6099
sS'sumthyn'
p6100
S'something'
p6101
sS'due'
p6102
S'due'
p6103
sS'damnnn'
p6104
S'damn'
p6105
sS'weather'
p6106
S'weather'
p6107
sS'champ'
p6108
S'champ'
p6109
sS'brush'
p6110
S'brush'
p6111
sS'@brownskiindream'
p6112
S'@brownskiindream'
p6113
sS'forget'
p6114
S'forget'
p6115
sS'negotiable'
p6116
S'negotiable'
p6117
sS'@ndaaahh'
p6118
S'@ndaaahh'
p6119
sS'wack'
p6120
S'wack'
p6121
sS'tamad'
p6122
S'damned'
p6123
sS'naturalll'
p6124
S'natural'
p6125
sS'apps'
p6126
S'apps'
p6127
sS'@envynish'
p6128
S'@envynish'
p6129
sS'spots'
p6130
S'spots'
p6131
sS'intention'
p6132
S'intention'
p6133
sS'@fruitdropss'
p6134
S'@fruitdropss'
p6135
sS'biggest'
p6136
S'biggest'
p6137
sS'yrs'
p6138
S'years'
p6139
sS'buy'
p6140
S'buy'
p6141
sS'north'
p6142
S'north'
p6143
sS"i've"
p6144
S"i've"
p6145
sS'fasho'
p6146
S'fashion'
p6147
sS'bus'
p6148
S'bus'
p6149
sS'coke'
p6150
S'coke'
p6151
sS'@jmacrocks04'
p6152
S'@jmacrocks04'
p6153
sS'hw'
p6154
S'how'
p6155
sS'but'
p6156
S'but'
p6157
sS'blaming'
p6158
S'blaming'
p6159
sS'buh'
p6160
S'but'
p6161
sS'cherokee'
p6162
S'cherokee'
p6163
sS'grate'
p6164
S'grate'
p6165
sS'wiff'
p6166
S'with'
p6167
sS'ha'
p6168
S'ha'
p6169
sS'eat'
p6170
S'eat'
p6171
sS'bud'
p6172
S'bud'
p6173
sS'he'
p6174
S'he'
p6175
sS'unfollow'
p6176
S'unfollow'
p6177
sS'made'
p6178
S'made'
p6179
sS'wise'
p6180
S'wise'
p6181
sS'hitter'
p6182
S'hitter'
p6183
sS'whether'
p6184
S'whether'
p6185
sS'wish'
p6186
S'wish'
p6187
sS'ahahahha'
p6188
S'ahahahha'
p6189
sS'wife'
p6190
S'wife'
p6191
sS'smooth'
p6192
S'smooth'
p6193
sS'probley'
p6194
S'probably'
p6195
sS'@_fucku2'
p6196
S'@_fucku2'
p6197
sS'record'
p6198
S'record'
p6199
sS'below'
p6200
S'below'
p6201
sS'convince'
p6202
S'convince'
p6203
sS'woke'
p6204
S'woke'
p6205
sS'problem'
p6206
S'problem'
p6207
sS"u've"
p6208
S"you've"
p6209
sS'minutes'
p6210
S'minutes'
p6211
sS'tastes'
p6212
S'tastes'
p6213
sS'myy'
p6214
S'my'
p6215
sS'pik'
p6216
S'pick'
p6217
sS'rightly'
p6218
S'rightly'
p6219
sS'htur'
p6220
S'htur'
p6221
sS'ki'
p6222
S'ki'
p6223
sS'year'
p6224
S'year'
p6225
sS'kisses'
p6226
S'kisses'
p6227
sS'whoaa'
p6228
S'whoaa'
p6229
sS'pix'
p6230
S'pictures'
p6231
sS'ew'
p6232
S'ew'
p6233
sS'inc'
p6234
S'inc'
p6235
sS'@erinpurchase'
p6236
S'@erinpurchase'
p6237
sS'#haiti'
p6238
S'#haiti'
p6239
sS'contest'
p6240
S'contest'
p6241
sS'@majorprozac'
p6242
S'@majorprozac'
p6243
sS'other'
p6244
S'other'
p6245
sS'details'
p6246
S'details'
p6247
sS'sick'
p6248
S'sick'
p6249
sS'mass'
p6250
S'mass'
p6251
sS'talkin'
p6252
S'talking'
p6253
sS'canada'
p6254
S'canada'
p6255
sS'@livingwithege'
p6256
S'@livingwithege'
p6257
sS'francisco'
p6258
S'francisco'
p6259
sS'star'
p6260
S'star'
p6261
sS'monday'
p6262
S'monday'
p6263
sS'http://www.youtube.com/watch?v=h0y3vs4o8mg'
p6264
S'http://www.youtube.com/watch?v=h0y3vs4o8mg'
p6265
sS'@brij_planetread'
p6266
S'@brij_planetread'
p6267
sS'stay'
p6268
S'stay'
p6269
sS'#cholera'
p6270
S'#cholera'
p6271
sS'goid'
p6272
S'good'
p6273
sS'@flashmoney8'
p6274
S'@flashmoney8'
p6275
sS'@terrencejones1'
p6276
S'@terrencejones1'
p6277
sS'badass'
p6278
S'badass'
p6279
sS'#twitterafterdark'
p6280
S'#twitterafterdark'
p6281
sS'friends'
p6282
S'friends'
p6283
sS'goin'
p6284
S'going'
p6285
sS'http://4ms.me/90cscw'
p6286
S'http://4ms.me/90cscw'
p6287
sS'bck'
p6288
S'back'
p6289
sS'sincee'
p6290
S'since'
p6291
sS'emery'
p6292
S'emery'
p6293
sS'@hurleyfyed'
p6294
S'@hurleyfyed'
p6295
sS'gayyyyyy'
p6296
S'gay'
p6297
sS'write'
p6298
S'write'
p6299
sS'awake'
p6300
S'awake'
p6301
sS'fess'
p6302
S'confess'
p6303
s.