(dp0
S'salwaar'
p1
S'salavAra'
p2
sS'hath'
p3
S'hAWa'
p4
sS'aashiq'
p5
S'ASikZa'
p6
sS'pasand'
p7
S'pasaMxa'
p8
sS'shuru'
p9
S'SurU'
p10
sS'khule'
p11
S'Kule'
p12
sS'aur'
p13
S'AUrYa'
p14
sS'matlab'
p15
S'mawalaba'
p16
sS'wjh'
p17
S'vajaha'
p18
sS'jayenge'
p19
S'jAyeMge'
p20
sS'aate'
p21
S'Apte'
p22
sS'bnaya'
p23
S'banAyA'
p24
sS'dkhi'
p25
S'xaMdI'
p26
sS'saare'
p27
S'sAre'
p28
sS'dkho'
p29
S'raKo'
p30
sS'badlna'
p31
S'baxalanA'
p32
sS'utni'
p33
S'uwanI'
p34
sS'humpe'
p35
S'hamape'
p36
sS'durghatna'
p37
S'xurGatanA'
p38
sS'chalti'
p39
S'calawI'
p40
sS'kutiya'
p41
S'kutiyA'
p42
sS'hora'
p43
S'horA'
p44
sS'galat'
p45
S'galawa'
p46
sS'payega'
p47
S'pAyegA'
p48
sS'chep'
p49
S'cipa'
p50
sS'tmhe'
p51
S'wAmhaNe'
p52
sS'naih'
p53
S'na'
p54
sS'warna'
p55
S'varanA'
p56
sS'bhugat'
p57
S'Bugawa'
p58
sS'minto'
p59
S'minatoM'
p60
sS'mahngai'
p61
S'mahaMgAI'
p62
sS'bharat'
p63
S'\xe2\x80\x98rAwa'
p64
sS'niche'
p65
S'nIce'
p66
sS'jaaye'
p67
S'jAye'
p68
sS'hera'
p69
S'heara'
p70
sS'mei'
p71
S'meM'
p72
sS'meh'
p73
S'meha'
p74
sS'pata'
p75
S'pAwA'
p76
sS'bech'
p77
S'beca'
p78
sS'pati'
p79
S'pawi'
p80
sS'path'
p81
S'pATa'
p82
sS'loot'
p83
S'lUta'
p84
sS'k'
p85
S'ke'
p86
sS'bhut'
p87
S'bahuwa'
p88
sS'bhul'
p89
S'bahula'
p90
sS'sadiyon'
p91
S'saxiyoM'
p92
sS'uspe'
p93
S'usape'
p94
sS'haddiyo'
p95
S'haddiyoM'
p96
sS'rahti'
p97
S'rahawI'
p98
sS'ludakh'
p99
S'laxAKa'
p100
sS'rahta'
p101
S'rahawA'
p102
sS'dne'
p103
S'xene'
p104
sS'deke'
p105
S'xeKe'
p106
sS'krwana'
p107
S'karavAnA'
p108
sS'nikammo'
p109
S'nikammo'
p110
sS'ugal'
p111
S'ugala'
p112
sS'apsabd'
p113
S'apsa'
p114
sS'bhlana'
p115
S'BaMjAnA'
p116
sS'hasaye'
p117
S'hAMsaya'
p118
sS'nki'
p119
S'nakI'
p120
sS'milkar'
p121
S'milakara'
p122
sS'lunga'
p123
S'lUMgA'
p124
sS'lungi'
p125
S'lUMgI'
p126
sS'me'
p127
S'meM'
p128
sS'ma'
p129
S'mEM'
p130
sS'dekh'
p131
S'xeKa'
p132
sS'mt'
p133
S'mawa'
p134
sS'btaega'
p135
S'bawAegA'
p136
sS'dimag'
p137
S'ximAga'
p138
sS'dimak'
p139
S'ximAka'
p140
sS'aukat'
p141
S'avakAwa'
p142
sS'denge'
p143
S'xeMge'
p144
sS'bhoke'
p145
S'BaMde'
p146
sS'harkat'
p147
S'haMka'
p148
sS'chandd'
p149
S'cAMxa'
p150
sS'aaaj'
p151
S'A'
p152
sS'khelein'
p153
S'KelIM'
p154
sS'kharche'
p155
S'Karce'
p156
sS'duniya'
p157
S'xuniyA'
p158
sS'pdunga'
p159
S'paDZUMgA'
p160
sS'guzra'
p161
S'gujarA'
p162
sS'imaan'
p163
S'imArAna'
p164
sS'kharid'
p165
S'KZarIxa'
p166
sS'sath'
p167
S'sAWa'
p168
sS'milega'
p169
S'milegA'
p170
sS'samajhna'
p171
S'samaJanA'
p172
sS'milegi'
p173
S'milegI'
p174
sS'lag'
p175
S'laga'
p176
sS'smjh'
p177
S'samaJa'
p178
sS'baaji'
p179
S'bAjI'
p180
sS'bahot'
p181
S'bahowa'
p182
sS'lat'
p183
S'lawa'
p184
sS'sabse'
p185
S'sabase'
p186
sS'vehle'
p187
S'vaMxe'
p188
sS'thapd'
p189
S'Warda'
p190
sS'muujhe'
p191
S'mazJale'
p192
sS'tumhra'
p193
S'wUmharA'
p194
sS'sanchar'
p195
S'saMcAra'
p196
sS'tumhre'
p197
S'wumhare'
p198
sS'karwai'
p199
S'kArravAI'
p200
sS'jhagda'
p201
S'JagadZA'
p202
sS'bhookh'
p203
S'BUKa'
p204
sS'samasya'
p205
S'samasyA'
p206
sS'nahin'
p207
S'nahIM'
p208
sS'fir'
p209
S'Pira'
p210
sS'satwaenge'
p211
S'samaJAeMge'
p212
sS'band'
p213
S'baMxa'
p214
sS'hmesa'
p215
S'hameSA'
p216
sS'bana'
p217
S'banA'
p218
sS'sayad'
p219
S'sEyaxa'
p220
sS'bani'
p221
S'banI'
p222
sS'banti'
p223
S'BAMwi'
p224
sS'bhaee'
p225
S'bahAe'
p226
sS'l'
p227
S'la'
p228
sS'mrne'
p229
S'marane'
p230
sS'bhot'
p231
S'bahuwa'
p232
sS'sasti'
p233
S'saswI'
p234
sS'hmse'
p235
S'hamase'
p236
sS'diya'
p237
S'xiyA'
p238
sS'diyo'
p239
S'xiyo'
p240
sS'chutiye'
p241
S'cutiyA'
p242
sS'haathi'
p243
S'hAWI'
p244
sS'chutiya'
p245
S'cutiyA'
p246
sS'logg'
p247
S'logOYga'
p248
sS'degi'
p249
S'xegI'
p250
sS'logo'
p251
S'logoM'
p252
sS'tatti'
p253
S'tattI'
p254
sS'logh'
p255
S'loga'
p256
sS'logi'
p257
S'loBI'
p258
sS'dhokebaj'
p259
S'XoKebAja'
p260
sS'bnana'
p261
S'banAnA'
p262
sS're'
p263
S're'
p264
sS'jald'
p265
S'jalxa'
p266
sS'ra'
p267
S'rAya'
p268
sS'ro'
p269
S'ro'
p270
sS'rh'
p271
S'raha'
p272
sS'ri'
p273
S'rI'
p274
sS'atyachaar'
p275
S'aKawyAra'
p276
sS'ate'
p277
S'Awe'
p278
sS'ata'
p279
S'AwA'
p280
sS'padosi'
p281
S'padZosI'
p282
sS'dhokhe'
p283
S'XoKe'
p284
sS'kohinoor'
p285
S'kohinUra'
p286
sS'dalde'
p287
S'dAladA'
p288
sS'isi'
p289
S'isI'
p290
sS'tadad'
p291
S'wAxAxa'
p292
sS'baten'
p293
S'bAweM'
p294
sS'aadaten'
p295
S'AxaweM'
p296
sS'ise'
p297
S'Ese'
p298
sS'nhe'
p299
S'nahI'
p300
sS'rang'
p301
S'raMga'
p302
sS'chhatri'
p303
S'CawarI'
p304
sS'puch'
p305
S'pUCa'
p306
sS'nhi'
p307
S'nahIM'
p308
sS'zarurat'
p309
S'jZarurawa'
p310
sS'bohot'
p311
S'bohota'
p312
sS'hoon'
p313
S'hEM'
p314
sS'kia'
p315
S'kiyA'
p316
sS'jaiyo'
p317
S'jAwiyo'
p318
sS'accha'
p319
S'acCA'
p320
sS'lega'
p321
S'lagA'
p322
sS'rona'
p323
S'ronA'
p324
sS'doge'
p325
S'xoge'
p326
sS'jaati'
p327
S'jAwI'
p328
sS'tou'
p329
S'wo'
p330
sS'tujhe'
p331
S'wuJe'
p332
sS'toh'
p333
S'toha'
p334
sS'too'
p335
S'wo'
p336
sS'unhone'
p337
S'unhoMne'
p338
sS'gye'
p339
S'gaye'
p340
sS'ga__mrnae'
p341
S'ga__mrnae'
p342
sS'gya'
p343
S'gayA'
p344
sS'tooo'
p345
S'wa'
p346
sS'gyi'
p347
S'gayI'
p348
sS'zindegi'
p349
S'jZiMxagI'
p350
sS'nahi'
p351
S'nahI'
p352
sS'nahe'
p353
S'nahI'
p354
sS'kardo'
p355
S'kArdo'
p356
sS'tarfa'
p357
S'waraPa'
p358
sS'shayad'
p359
S'SAyaxa'
p360
sS'haye'
p361
S'hAya'
p362
sS'khelne'
p363
S'Kelane'
p364
sS'jaldi'
p365
S'jalxI'
p366
sS'rehna'
p367
S'rahanA'
p368
sS'rehne'
p369
S'rahane'
p370
sS'dikhaega'
p371
S'xiKAegA'
p372
sS'bheja'
p373
S'BejA'
p374
sS'puchti'
p375
S'pUCawI'
p376
sS'banaya'
p377
S'banAyA'
p378
sS'milta'
p379
S'milawA'
p380
sS'bss'
p381
S'basasa'
p382
sS'unhe'
p383
S'unheM'
p384
sS'khoj'
p385
S'Koja'
p386
sS'khol'
p387
S'Kola'
p388
sS'maaje'
p389
S'mazja'
p390
sS'shyd'
p391
S'Sabxa'
p392
sS'sub'
p393
S'saba'
p394
sS'galti'
p395
S'galawI'
p396
sS'kiye'
p397
S'kiye'
p398
sS'huye'
p399
S'huye'
p400
sS'kiya'
p401
S'kiyA'
p402
sS'paega'
p403
S'pAegA'
p404
sS'm'
p405
S'ma'
p406
sS'kaale'
p407
S'kAPale'
p408
sS'ullu'
p409
S'ullU'
p410
sS'abi'
p411
S'aBI'
p412
sS'niklte'
p413
S'nikalawe'
p414
sS'aashiqui'
p415
S'ASika'
p416
sS'haiiiii'
p417
S'ha'
p418
sS'yeh'
p419
S'yaha'
p420
sS'ankho'
p421
S'AMKoM'
p422
sS'pka'
p423
S'pakA'
p424
sS'guzar'
p425
S'gujAra'
p426
sS'd0'
p427
S'da'
p428
sS'neend'
p429
S'nIMxa'
p430
sS'niwase'
p431
S'nivAsa'
p432
sS'waha'
p433
S'vAhA'
p434
sS'mene'
p435
S'mEMne'
p436
sS'badao'
p437
S'baDZAo'
p438
sS'badal'
p439
S'baxala'
p440
sS'pucha'
p441
S'pUCA'
p442
sS'do'
p443
S'xo'
p444
sS'puche'
p445
S'pUCe'
p446
sS'di'
p447
S'xI'
p448
sS'de'
p449
S'xe'
p450
sS'raksha'
p451
S'rakRA'
p452
sS'geet'
p453
S'gIwa'
p454
sS'zrur'
p455
S'jZarUra'
p456
sS'aane'
p457
S'Apane'
p458
sS'dp'
p459
S'Dapa'
p460
sS'bat'
p461
S'bAwa'
p462
sS'bar'
p463
S'bAra'
p464
sS'bas'
p465
S'basa'
p466
sS'dusra'
p467
S'xUsarA'
p468
sS'dusre'
p469
S'xUsare'
p470
sS'bad'
p471
S'bAxa'
p472
sS'sikhaya'
p473
S'siKAyA'
p474
sS'krlo'
p475
S'karjo'
p476
sS'jaari'
p477
S'jArI'
p478
sS'phrr'
p479
S'PaMtra'
p480
sS'konsa'
p481
S'kOnasA'
p482
sS'krle'
p483
S'karale'
p484
sS'pada'
p485
S'padZA'
p486
sS'pade'
p487
S'padZe'
p488
sS'padi'
p489
S'padZI'
p490
sS'padh'
p491
S'paDZa'
p492
sS'bagal'
p493
S'bagala'
p494
sS'dobara'
p495
S'xobArA'
p496
sS'maharaja'
p497
S'mahArAja'
p498
sS'ghanta'
p499
S'GaMtA'
p500
sS'pdhte'
p501
S'paDZawe'
p502
sS'jamaal'
p503
S'jamAla'
p504
sS'bhajanpura'
p505
S'BajanapurA'
p506
sS'jinda'
p507
S'jiMxA'
p508
sS'choda'
p509
S'CodZA'
p510
sS'bukhaar'
p511
S'buKAra'
p512
sS'wo'
p513
S'vo'
p514
sS'chodo'
p515
S'CodZo'
p516
sS'chodh'
p517
S'cOxaha'
p518
sS'kufr'
p519
S'kuPra'
p520
sS'chutkara'
p521
S'CutakArA'
p522
sS'ham'
p523
S'hama'
p524
sS'glti'
p525
S'galawI'
p526
sS'fareb'
p527
S'Pareba'
p528
sS'yaar'
p529
S'yAwra'
p530
sS'jaye'
p531
S'jAye'
p532
sS'karen'
p533
S'kareM'
p534
sS'kregi'
p535
S'karegI'
p536
sS'gatar'
p537
S'gatara'
p538
sS'krega'
p539
S'karegA'
p540
sS'fri'
p541
S'PrI'
p542
sS'beet'
p543
S'bIwa'
p544
sS'kroooooo'
p545
S'karUz'
p546
sS'tjhe'
p547
S'waise'
p548
sS'chun'
p549
S'cuna'
p550
sS'naya'
p551
S'nayA'
p552
sS'piste'
p553
S'piswe'
p554
sS'chup'
p555
S'cupa'
p556
sS'chaiya'
p557
S'cAhiyA'
p558
sS'har'
p559
S'hAra'
p560
sS'chaiye'
p561
S'cAhiye'
p562
sS'aurat'
p563
S'Orawa'
p564
sS'chaaappp'
p565
S'caMpaI'
p566
sS'gyaa'
p567
S'gayAnA'
p568
sS'n'
p569
S'na'
p570
sS'mohabbt'
p571
S'mohabbawa'
p572
sS'jhaanko'
p573
S'JAzko'
p574
sS'iz'
p575
S'ija'
p576
sS'jese'
p577
S'jese'
p578
sS'is'
p579
S'isa'
p580
sS'khati'
p581
S'KAwI'
p582
sS'paeega'
p583
S'paMKA'
p584
sS'in'
p585
S'ina'
p586
sS'udao'
p587
S'uKadZA'
p588
sS'hone'
p589
S'hone'
p590
sS'hona'
p591
S'honA'
p592
sS'tmhare'
p593
S'wmhare'
p594
sS'honi'
p595
S'honI'
p596
sS'nikl'
p597
S'nikala'
p598
sS'kahin'
p599
S'kahIM'
p600
sS'hony'
p601
S'honI'
p602
sS'kaash'
p603
S'kASa'
p604
sS'jama'
p605
S'jamA'
p606
sS'aapne'
p607
S'Apane'
p608
sS'andha'
p609
S'aMXA'
p610
sS'kis'
p611
S'kisa'
p612
sS'yakin'
p613
S'yakIna'
p614
sS'nie'
p615
S'naie'
p616
sS'chakkr'
p617
S'cakkara'
p618
sS'patane'
p619
S'patAne'
p620
sS'patani'
p621
S'pAwAnI'
p622
sS'tope'
p623
S'tOYpa'
p624
sS'moka'
p625
S'mOkA'
p626
sS'kie'
p627
S'kie'
p628
sS'jiyo'
p629
S'jiyo'
p630
sS'aisa'
p631
S'jEsA'
p632
sS'dadi'
p633
S'xAxI'
p634
sS'aise'
p635
S'aise'
p636
sS'aisi'
p637
S'AIsI'
p638
sS'kamine'
p639
S'kAmIne'
p640
sS'tho'
p641
S'To'
p642
sS'thk'
p643
S'Waka'
p644
sS'thi'
p645
S'WI'
p646
sS'the'
p647
S'We'
p648
sS'tha'
p649
S'WA'
p650
sS'padne'
p651
S'padZane'
p652
sS'kroo'
p653
S'karo'
p654
sS'honge'
p655
S'hoMge'
p656
sS'tujse'
p657
S'wuJase'
p658
sS'hai'
p659
S'hAI'
p660
sS'gadde'
p661
S'gadDe'
p662
sS'socha'
p663
S'socA'
p664
sS'han'
p665
S'hAM'
p666
sS'socho'
p667
S'soco'
p668
sS'had'
p669
S'haxa'
p670
sS'bato'
p671
S'bAwa'
p672
sS'bni'
p673
S'banI'
p674
sS'haq'
p675
S'hakZa'
p676
sS'bna'
p677
S'banA'
p678
sS'has'
p679
S'hAsa'
p680
sS'hat'
p681
S'hata'
p682
sS'bnd'
p683
S'baMxa'
p684
sS'bhagwan'
p685
S'BagavAna'
p686
sS'jaunga'
p687
S'jAUMgA'
p688
sS'chahe'
p689
S'cAhe'
p690
sS'khoon'
p691
S'KUna'
p692
sS'bandi'
p693
S'baMxI'
p694
sS'banda'
p695
S'bAMxA'
p696
sS'jaha'
p697
S'jahAM'
p698
sS'd'
p699
S'xa'
p700
sS'avatar'
p701
S'avawAra'
p702
sS'skta'
p703
S'sakawA'
p704
sS'ole'
p705
S'ole'
p706
sS'skte'
p707
S'sakawe'
p708
sS'mulla'
p709
S'mullA'
p710
sS'radha'
p711
S'rAXA'
p712
sS'sota'
p713
S'sowA'
p714
sS'pkka'
p715
S'pakkA'
p716
sS'aacha'
p717
S'BAcA'
p718
sS'rakhkhenge'
p719
S'raKeMge'
p720
sS'bole'
p721
S'bole'
p722
sS'bahu'
p723
S'bahU'
p724
sS'nazar'
p725
S'najZara'
p726
sS'saaab'
p727
S'sAba'
p728
sS'jyada'
p729
S'jyAxA'
p730
sS'sambhli'
p731
S'saMBalI'
p732
sS'bolo'
p733
S'bolo'
p734
sS'pher'
p735
S'Pera'
p736
sS'sambhodhit'
p737
S'sambaMXiwa'
p738
sS'ghumta'
p739
S'GUmawA'
p740
sS'chalta'
p741
S'calawA'
p742
sS'liye'
p743
S'liye'
p744
sS'zamaana'
p745
S'jZamAnA'
p746
sS'liya'
p747
S'liyA'
p748
sS'tabhe'
p749
S'waise'
p750
sS'laana'
p751
S'lAxanA'
p752
sS'tabhi'
p753
S'waMgI'
p754
sS'o'
p755
g755
sS'lagati'
p756
S'lagawI'
p757
sS'bhaga'
p758
S'BIAga'
p759
sS'chahta'
p760
S'cAhawA'
p761
sS'usse'
p762
S'use'
p763
sS'bata'
p764
S'bAwa'
p765
sS'jwnge'
p766
S'jaMga'
p767
sS'dukh'
p768
S'xuKa'
p769
sS'abey'
p770
S'abI'
p771
sS'mushkl'
p772
S'muSka'
p773
sS'bche'
p774
S'bace'
p775
sS'paya'
p776
S'pAyA'
p777
sS'beti'
p778
S'betI'
p779
sS'wai'
p780
S'vAI'
p781
sS'wah'
p782
S'vaha'
p783
sS'janu'
p784
S'jAnU'
p785
sS'lagu'
p786
S'lAgU'
p787
sS'halla'
p788
S'hallA'
p789
sS'zaruri'
p790
S'jZarUrI'
p791
sS'lagi'
p792
S'lagI'
p793
sS'harana'
p794
S'hErAna'
p795
sS'jane'
p796
S'jAne'
p797
sS'jana'
p798
S'jAnA'
p799
sS'laga'
p800
S'lagA'
p801
sS'paka'
p802
S'pAka'
p803
sS'maarne'
p804
S'mArane'
p805
sS'daalke'
p806
S'daMke'
p807
sS'piya'
p808
S'piyA'
p809
sS'bera'
p810
S'berA'
p811
sS'mitenge'
p812
S'miteMge'
p813
sS'laye'
p814
S'lAye'
p815
sS'bnayega'
p816
S'bawAyegA'
p817
sS'soja'
p818
S'sajA'
p819
sS'raha'
p820
S'rahA'
p821
sS'rahe'
p822
S'rahe'
p823
sS'rahi'
p824
S'rahI'
p825
sS'hame'
p826
S'hame'
p827
sS'khn'
p828
S'Kana'
p829
sS'kho'
p830
S'Ko'
p831
sS'kha'
p832
S'kahA'
p833
sS'khe'
p834
S'kahe'
p835
sS'nh'
p836
S'naha'
p837
sS'gyaan'
p838
S'gyAna'
p839
sS'banaunga'
p840
S'bawAUMgA'
p841
sS'dikha'
p842
S'xiKA'
p843
sS'na'
p844
S'na'
p845
sS'ne'
p846
S'ne'
p847
sS'nu'
p848
S'na'
p849
sS'royegi'
p850
S'rokegI'
p851
sS'vaha'
p852
S'vaha'
p853
sS'muslimo'
p854
S'muslimo'
p855
sS'khulna'
p856
S'KulanA'
p857
sS'ajkal'
p858
S'Ajakala'
p859
sS'tumhe'
p860
S'wumheM'
p861
sS'girwan'
p862
S'giravAM'
p863
sS'mjhe'
p864
S'maJe'
p865
sS'paaye'
p866
S'pAXye'
p867
sS'rok'
p868
S'roka'
p869
sS'sambhalta'
p870
S'saMBalawA'
p871
sS'roz'
p872
S'roja'
p873
sS'taleey'
p874
S'wElIya'
p875
sS'mila'
p876
S'milA'
p877
sS'mill'
p878
S'mila'
p879
sS'ose'
p880
S'osa'
p881
sS'mili'
p882
S'milI'
p883
sS'dhadke'
p884
S'Xakke'
p885
sS'tmhre'
p886
S'wmhare'
p887
sS'thanda'
p888
S'TaMdA'
p889
sS'smjhegi'
p890
S'samaJegI'
p891
sS'0'
p892
g892
sS'vichaaar'
p893
S'vicAra'
p894
sS'hume'
p895
S'hame'
p896
sS'wahi'
p897
S'vahI'
p898
sS'pehente'
p899
S'pehenawe'
p900
sS'dil'
p901
S'xila'
p902
sS'din'
p903
S'xina'
p904
sS'die'
p905
S'xie'
p906
sS'maha'
p907
S'mAha'
p908
sS'dia'
p909
S'xiyA'
p910
sS'p'
p911
S'pa'
p912
sS'haath'
p913
S'hAWa'
p914
sS'diy'
p915
S'xie'
p916
sS'bola'
p917
S'bolA'
p918
sS'niklega'
p919
S'nikalegA'
p920
sS'hta'
p921
S'hatA'
p922
sS'hti'
p923
S'haTI'
p924
sS'baki'
p925
S'bAkI'
p926
sS'karenge'
p927
S'kareMge'
p928
sS'chotu'
p929
S'CotU'
p930
sS'sanskriti'
p931
S'saMskqwi'
p932
sS'chota'
p933
S'CotA'
p934
sS'bahut'
p935
S'bahuwa'
p936
sS'choti'
p937
S'CotI'
p938
sS'taash'
p939
S'wa'
p940
sS'bulane'
p941
S'bulAne'
p942
sS'krna'
p943
S'karanA'
p944
sS'krne'
p945
S'karane'
p946
sS'fayeda'
p947
S'PAyaxA'
p948
sS'krni'
p949
S'karanI'
p950
sS'kamo'
p951
S'kAmoM'
p952
sS'milenge'
p953
S'mileMge'
p954
sS'tumne'
p955
S'wumane'
p956
sS'nikal'
p957
S'nikAla'
p958
sS'insan'
p959
S'iMsAna'
p960
sS'liyo'
p961
S'liyo'
p962
sS'ishaq'
p963
S'ijAka'
p964
sS'bol'
p965
S'bola'
p966
sS'bkws'
p967
S'ba'
p968
sS'ayi'
p969
S'AyI'
p970
sS'aye'
p971
S'Aye'
p972
sS'aya'
p973
S'AyA'
p974
sS'lgta'
p975
S'lagawA'
p976
sS'dimaag'
p977
S'ximAgZa'
p978
sS'andr'
p979
S'aMxara'
p980
sS'india'
p981
S'iMdiyA'
p982
sS'aconjhi'
p983
S'AbAMJIra'
p984
sS'aaega'
p985
S'AegA'
p986
sS'malai'
p987
S'malAI'
p988
sS'kasam'
p989
S'kasama'
p990
sS'aayien'
p991
S'AM'
p992
sS'kese'
p993
S'kEse'
p994
sS'janwar'
p995
S'jAnavara'
p996
sS'logon'
p997
S'logoM'
p998
sS'kyn'
p999
S'kyaM'
p1000
sS'mazze'
p1001
S'macAe'
p1002
sS'kya'
p1003
S'kyA'
p1004
sS'samjh'
p1005
S'samaJa'
p1006
sS'kyu'
p1007
S'kyU'
p1008
sS'usne'
p1009
S'usane'
p1010
sS'afsos'
p1011
S'aPasosa'
p1012
sS'namumkin'
p1013
S'nAmumakina'
p1014
sS'bulate'
p1015
S'bulAwe'
p1016
sS'pine'
p1017
S'pIne'
p1018
sS'pauua'
p1019
S'paUra'
p1020
sS'pura'
p1021
S'para'
p1022
sS'sochta'
p1023
S'socawA'
p1024
sS'puri'
p1025
S'pUrI'
p1026
sS'dekhni'
p1027
S'xeKanI'
p1028
sS'joote'
p1029
S'jUwe'
p1030
sS'mar'
p1031
S'mAra'
p1032
sS'mat'
p1033
S'mawa'
p1034
sS'may'
p1035
S'maya'
p1036
sS'maa'
p1037
S'mAnA'
p1038
sS'mae'
p1039
S'mAM'
p1040
sS'mai'
p1041
S'mAI'
p1042
sS'khokla'
p1043
S'KoKalA'
p1044
sS'man'
p1045
S'mAM'
p1046
sS'btaa'
p1047
S'bawAyA'
p1048
sS'ghr'
p1049
S'Gara'
p1050
sS'devi'
p1051
S'xevI'
p1052
sS'btao'
p1053
S'bawAo'
p1054
sS'q'
p1055
S'ka'
p1056
sS'si'
p1057
S'se'
p1058
sS'so'
p1059
S'se'
p1060
sS'jaio'
p1061
S'jAyo'
p1062
sS'sb'
p1063
S'saba'
p1064
sS'sa'
p1065
S'sA'
p1066
sS'manga'
p1067
S'mAMga'
p1068
sS'se'
p1069
S'se'
p1070
sS'karunga'
p1071
S'karUzgA'
p1072
sS'wajah'
p1073
S'vajaha'
p1074
sS'karungi'
p1075
S'karUMgI'
p1076
sS'kadam'
p1077
S'kaxama'
p1078
sS'ghota'
p1079
S'GotA'
p1080
sS'jin'
p1081
S'jina'
p1082
sS'nautanki'
p1083
S'nOtaMkI'
p1084
sS'feri'
p1085
S'PerI'
p1086
sS'jis'
p1087
S'jisa'
p1088
sS'bura'
p1089
S'burA'
p1090
sS'main'
p1091
S'mAina'
p1092
sS'jaegi'
p1093
S'jAegI'
p1094
sS'marzi'
p1095
S'marjZI'
p1096
sS'tje'
p1097
S'waise'
p1098
sS'rakh'
p1099
S'raKa'
p1100
sS'jaega'
p1101
S'jAegA'
p1102
sS'batado'
p1103
S'bacAbo'
p1104
sS'behtar'
p1105
S'behawara'
p1106
sS'kaheen'
p1107
S'kahIM'
p1108
sS'bcha'
p1109
S'bacA'
p1110
sS'teri'
p1111
S'werI'
p1112
sS'tere'
p1113
S'were'
p1114
sS'tera'
p1115
S'werA'
p1116
sS'namo'
p1117
S'nAma'
p1118
sS'diye'
p1119
S'xiyA'
p1120
sS'pahle'
p1121
S'pahale'
p1122
sS'ghar'
p1123
S'Gara'
p1124
sS'vrna'
p1125
S'varanA'
p1126
sS'padha'
p1127
S'paDZA'
p1128
sS'ek'
p1129
S'eka'
p1130
sS'padhe'
p1131
S'padZe'
p1132
sS'padho'
p1133
S'paDZo'
p1134
sS'chupan'
p1135
S'Cagana'
p1136
sS'jayada'
p1137
S'jayAxA'
p1138
sS'hajar'
p1139
S'hajAra'
p1140
sS'phuk'
p1141
S'Pa'
p1142
sS'bla'
p1143
S'BalA'
p1144
sS'rahenge'
p1145
S'raheMge'
p1146
sS'tumhein'
p1147
S'wumhIM'
p1148
sS'maari'
p1149
S'mArI'
p1150
sS'bolte'
p1151
S'bolawe'
p1152
sS'kabada'
p1153
S'kabAdZA'
p1154
sS'bahiyya'
p1155
S'baMWiyA'
p1156
sS'bolta'
p1157
S'bolawA'
p1158
sS'qk'
p1159
S'kaMjaka'
p1160
sS'bolti'
p1161
S'bolawI'
p1162
sS'yahan'
p1163
S'yahAM'
p1164
sS'btameez'
p1165
S'bawamIjI'
p1166
sS'gaaliyan'
p1167
S'gAliyAz'
p1168
sS'kitni'
p1169
S'kiwanI'
p1170
sS'kitno'
p1171
S'kiwano'
p1172
sS'kitna'
p1173
S'kiwanA'
p1174
sS'bhijwa'
p1175
S'BijavA'
p1176
sS'kitne'
p1177
S'kiwane'
p1178
sS'xa'
p1179
S'xA'
p1180
sS'dega'
p1181
S'xegA'
p1182
sS'zindagi'
p1183
S'jZiMxagI'
p1184
sS'khush'
p1185
S'KuSa'
p1186
sS'krayie'
p1187
S'krAya'
p1188
sS'masala'
p1189
S'masAlA'
p1190
sS'hue'
p1191
S'hue'
p1192
sS'hua'
p1193
S'huA'
p1194
sS'alag'
p1195
S'alaga'
p1196
sS'hum'
p1197
S'hama'
p1198
sS'hun'
p1199
S'hEM'
p1200
sS'huh'
p1201
S'ha'
p1202
sS'hui'
p1203
S'hue'
p1204
sS'huk'
p1205
S'haka'
p1206
sS'thaa'
p1207
S'WAnA'
p1208
sS'larke'
p1209
S'laMkA'
p1210
sS'shuak'
p1211
S'Saka'
p1212
sS'thak'
p1213
S'TAka'
p1214
sS'moholla'
p1215
S'mohallA'
p1216
sS'chada'
p1217
S'cAra'
p1218
sS'ajata'
p1219
S'ajawa'
p1220
sS'ajate'
p1221
S'aGAwe'
p1222
sS'r'
p1223
S'ra'
p1224
sS'rhegi'
p1225
S'rahegI'
p1226
sS'jnki'
p1227
S'jakI'
p1228
sS'ana'
p1229
S'AnA'
p1230
sS'sab'
p1231
S'saba'
p1232
sS'jamata'
p1233
S'jamAwa'
p1234
sS'sulk'
p1235
S'Sulka'
p1236
sS'dadaji'
p1237
S'xAxAjI'
p1238
sS'rtae'
p1239
S'ratAI'
p1240
sS'take'
p1241
S'waka'
p1242
sS'smjha'
p1243
S'samaJA'
p1244
sS'smjhe'
p1245
S'samaJe'
p1246
sS'pakaya'
p1247
S'pakAyA'
p1248
sS'bkwaas'
p1249
S'bakabAsa'
p1250
sS'kehte'
p1251
S'kahawe'
p1252
sS'kehta'
p1253
S'kahawA'
p1254
sS'inki'
p1255
S'inakI'
p1256
sS'beta'
p1257
S'betA'
p1258
sS'samghe'
p1259
S'saMga'
p1260
sS'bete'
p1261
S'bete'
p1262
sS'inko'
p1263
S'inako'
p1264
sS'pair'
p1265
S'pAtIr'
p1266
sS'bataya'
p1267
S'bawAyA'
p1268
sS'inke'
p1269
S'inake'
p1270
sS'bataye'
p1271
S'bawAye'
p1272
sS'achaanak'
p1273
S'acAnaka'
p1274
sS'sala'
p1275
S'sAla'
p1276
sS'dhakka'
p1277
S'XakkA'
p1278
sS'sale'
p1279
S'sAla'
p1280
sS'dhakke'
p1281
S'Xakke'
p1282
sS'isko'
p1283
S'isako'
p1284
sS'iski'
p1285
S'isakI'
p1286
sS'phir'
p1287
S'pahira'
p1288
sS'bada'
p1289
S'bAxa'
p1290
sS'iske'
p1291
S'isake'
p1292
sS'mre'
p1293
S'mare'
p1294
sS'iska'
p1295
S'isakA'
p1296
sS'badi'
p1297
S'badZI'
p1298
sS'rahega'
p1299
S'rahegA'
p1300
sS'raja'
p1301
S'rAjA'
p1302
sS'rahegi'
p1303
S'rahegI'
p1304
sS'daaru'
p1305
S'daOra'
p1306
sS'isne'
p1307
S'isane'
p1308
sS'chhap'
p1309
S'CApa'
p1310
sS'maine'
p1311
S'mAyane'
p1312
sS'jhnd'
p1313
S'Jajja'
p1314
sS'kesi'
p1315
S'kesI'
p1316
sS'ladkiya'
p1317
S'ladZakiyAM'
p1318
sS'leke'
p1319
S'leke'
p1320
sS'daal'
p1321
S'dAla'
p1322
sS'ladkiyo'
p1323
S'ladZakiyoM'
p1324
sS'bilkul'
p1325
S'bilkula'
p1326
sS'rhega'
p1327
S'rahegA'
p1328
sS'chupai'
p1329
S'cOpAI'
p1330
sS'chhod'
p1331
S'CodZa'
p1332
sS'baith'
p1333
S'baiTa'
p1334
sS'miley'
p1335
S'milI'
p1336
sS'kaafi'
p1337
S'kAPZI'
p1338
sS'azaadi'
p1339
S'AjZAxI'
p1340
sS'espe'
p1341
S'esapI'
p1342
sS'suker'
p1343
S'saMkara'
p1344
sS'maane'
p1345
S'mAyane'
p1346
sS'maano'
p1347
S'mAyano'
p1348
sS'jta'
p1349
S'jawA'
p1350
sS'haare'
p1351
S'hAre'
p1352
sS'chudaai'
p1353
S'cadZA'
p1354
sS'hawas'
p1355
S'havasa'
p1356
sS'chacha'
p1357
S'cAcA'
p1358
sS'jo'
p1359
S'jo'
p1360
sS'ji'
p1361
S'jI'
p1362
sS'ja'
p1363
S'jA'
p1364
sS'jb'
p1365
S'jaba'
p1366
sS'tarike'
p1367
S'warIke'
p1368
sS'tarika'
p1369
S'warIkA'
p1370
sS'krtae'
p1371
S'karwa'
p1372
sS'mana'
p1373
S'mAnA'
p1374
sS's'
p1375
S'sa'
p1376
sS'mane'
p1377
S'mAne'
p1378
sS'chakkar'
p1379
S'cakkara'
p1380
sS'dkh'
p1381
S'da'
p1382
sS'tum'
p1383
S'wuma'
p1384
sS'tbhi'
p1385
S'waMgI'
p1386
sS'humein'
p1387
S'hameM'
p1388
sS'aaja'
p1389
S'AjA'
p1390
sS'mara'
p1391
S'mAra'
p1392
sS'maro'
p1393
S'mAro'
p1394
sS'mari'
p1395
S'mArI'
p1396
sS'jrurt'
p1397
S'jarUrawa'
p1398
sS'wese'
p1399
S'vese'
p1400
sS'wesa'
p1401
S'vesA'
p1402
sS'chudi'
p1403
S'cOdZI'
p1404
sS'wakt'
p1405
S'vakwa'
p1406
sS'padke'
p1407
S'paDZake'
p1408
sS'aadmi'
p1409
S'AaxamI'
p1410
sS'bachao'
p1411
S'bacAo'
p1412
sS'chal'
p1413
S'cAla'
p1414
sS'baad'
p1415
S'bANda'
p1416
sS'kripya'
p1417
S'kqpayA'
p1418
sS'hdd'
p1419
S'haxa'
p1420
sS'eid'
p1421
S'eNda'
p1422
sS'shanti'
p1423
S'SAMwi'
p1424
sS'padhai'
p1425
S'paDZAI'
p1426
sS'rakhsha'
p1427
S'rakwa'
p1428
sS'pakka'
p1429
S'pakkA'
p1430
sS'tutegi'
p1431
S'tUtegI'
p1432
sS'vese'
p1433
S'vEse'
p1434
sS'koshish'
p1435
S'koSiSa'
p1436
sS'daalna'
p1437
S'dAlanA'
p1438
sS'dawai'
p1439
S'xavAI'
p1440
sS'saath'
p1441
S'saMWA'
p1442
sS'raajneeti'
p1443
S'rAjanIwI'
p1444
sS'pas'
p1445
S'pAsa'
p1446
sS'dolna'
p1447
S'datanA'
p1448
sS'banake'
p1449
S'banAke'
p1450
sS'pad'
p1451
S'paxa'
p1452
sS'ahshano'
p1453
S'ahshano'
p1454
sS'baksh'
p1455
S'bakSa'
p1456
sS'budaphe'
p1457
S'bujAke'
p1458
sS'pal'
p1459
S'pAla'
p1460
sS'pao'
p1461
S'pAo'
p1462
sS'kutta'
p1463
S'kuwwA'
p1464
sS'lakin'
p1465
S'lakina'
p1466
sS'aarakshit'
p1467
S'ArakRiwa'
p1468
sS'kutti'
p1469
S'kuttI'
p1470
sS'kutto'
p1471
S'kuwwoM'
p1472
sS'tarh'
p1473
S'waraha'
p1474
sS'hmari'
p1475
S'hamArI'
p1476
sS'hmare'
p1477
S'hamAre'
p1478
sS'aankho'
p1479
S'AzKo'
p1480
sS'barish'
p1481
S'bAriSa'
p1482
sS'hmara'
p1483
S'hamArA'
p1484
sS'kranti'
p1485
S'krAMwi'
p1486
sS'waala'
p1487
S'vAlA'
p1488
sS'yhi'
p1489
S'yahI'
p1490
sS'maanke'
p1491
S'mAnake'
p1492
sS'kaam'
p1493
S'kAma'
p1494
sS'yha'
p1495
S'yaha'
p1496
sS'payga'
p1497
S'pAegA'
p1498
sS'kaat'
p1499
S'kAsta'
p1500
sS'nai'
p1501
S'naI'
p1502
sS'tare'
p1503
S'wAre'
p1504
sS'leta'
p1505
S'lewA'
p1506
sS'lete'
p1507
S'lewe'
p1508
sS'lgegi'
p1509
S'lagegI'
p1510
sS'leti'
p1511
S'lewI'
p1512
sS'dhapli'
p1513
S'DapalI'
p1514
sS'4'
p1515
g1515
sS'wranti'
p1516
S'rataMwa'
p1517
sS'sbne'
p1518
S'sabane'
p1519
sS'darr'
p1520
S'xara'
p1521
sS'daru'
p1522
S'xArU'
p1523
sS'jaago'
p1524
S'jAgo'
p1525
sS'dita'
p1526
S'xewA'
p1527
sS'dard'
p1528
S'xarxa'
p1529
sS'musibat'
p1530
S'musIbawa'
p1531
sS'deta'
p1532
S'xewA'
p1533
sS'dete'
p1534
S'xewe'
p1535
sS'nakhre'
p1536
S'naKare'
p1537
sS'harami'
p1538
S'harAmI'
p1539
sS'sangharsh'
p1540
S'saMGarRa'
p1541
sS'naag'
p1542
S'nAnaga'
p1543
sS'haase'
p1544
S'hAxase'
p1545
sS'naam'
p1546
S'nAkAma'
p1547
sS'tanha'
p1548
S'wanhA'
p1549
sS'avehi'
p1550
S'a5'
p1551
sS'garvnirodhk'
p1552
S'garBaniroXaka'
p1553
sS'piche'
p1554
S'pICe'
p1555
sS'picha'
p1556
S'pICA'
p1557
sS'dekho'
p1558
S'xeKo'
p1559
sS'dekhi'
p1560
S'xeKI'
p1561
sS'jageh'
p1562
S'jAgeha'
p1563
sS'sari'
p1564
S'sArI'
p1565
sS'karwate'
p1566
S'karavAwe'
p1567
sS'chooza'
p1568
S'cUjZa'
p1569
sS'karwati'
p1570
S'karavAwI'
p1571
sS'asan'
p1572
S'AsAna'
p1573
sS'chod'
p1574
S'CodZa'
p1575
sS'btana'
p1576
S'bawAnA'
p1577
sS'darshan'
p1578
S'xarSana'
p1579
sS'oh'
p1580
S'oha'
p1581
sS'jeet'
p1582
S'jIwa'
p1583
sS'karao'
p1584
S'karAo'
p1585
sS'chor'
p1586
S'cora'
p1587
sS'langar'
p1588
S'laMgara'
p1589
sS'krwao'
p1590
S'karavAo'
p1591
sS'humbhi'
p1592
S'hazsI'
p1593
sS'or'
p1594
S'Ora'
p1595
sS'aese'
p1596
S'Aesa'
p1597
sS'purana'
p1598
S'purAnA'
p1599
sS'aesa'
p1600
S'AesA'
p1601
sS'purane'
p1602
S'purAne'
p1603
sS'khayi'
p1604
S'KAyI'
p1605
sS'ladkii'
p1606
S'ladZakI'
p1607
sS'purani'
p1608
S'purAnI'
p1609
sS'ladkio'
p1610
S'ladZakioM'
p1611
sS'aesi'
p1612
S'AIsI'
p1613
sS'jitna'
p1614
S'jiwanA'
p1615
sS'nikla'
p1616
S'nikalA'
p1617
sS'yar'
p1618
S'yAra'
p1619
sS'shabash'
p1620
S'SAbASa'
p1621
sS'log'
p1622
S'loga'
p1623
sS'bhaya'
p1624
S'bahAyA'
p1625
sS'lijiye'
p1626
S'lIjiye'
p1627
sS'arey'
p1628
S'arGya'
p1629
sS'dastak'
p1630
S'xaswaka'
p1631
sS'chata'
p1632
S'jAwA'
p1633
sS'baitha'
p1634
S'baiTA'
p1635
sS'marne'
p1636
S'mArane'
p1637
sS'marna'
p1638
S'mAranA'
p1639
sS'mazaak'
p1640
S'majZAka'
p1641
sS'mujhe'
p1642
S'muJe'
p1643
sS'hunnnn'
p1644
S'hanana'
p1645
sS'aa'
p1646
S'AyA'
p1647
sS'batwaenge'
p1648
S'bacAeMge'
p1649
sS'ab'
p1650
S'aba'
p1651
sS'ae'
p1652
S'Ae'
p1653
sS'ag'
p1654
S'Aga'
p1655
sS'bolne'
p1656
S'bolane'
p1657
sS'ak'
p1658
S'eka'
p1659
sS'aj'
p1660
S'Aja'
p1661
sS'ap'
p1662
S'Apa'
p1663
sS'as'
p1664
S'Asa'
p1665
sS'kucj'
p1666
S'ka'
p1667
sS'bhejna'
p1668
S'BejanA'
p1669
sS'phela'
p1670
S'pahela'
p1671
sS'kabi'
p1672
S'kaBI'
p1673
sS'humko'
p1674
S'hamako'
p1675
sS'ansu'
p1676
S'AMsU'
p1677
sS'safar'
p1678
S'saPara'
p1679
sS'kharab'
p1680
S'KarAba'
p1681
sS'chabi'
p1682
S'cAbI'
p1683
sS'patthi'
p1684
S'paMWI'
p1685
sS'aakr'
p1686
S'Azra'
p1687
sS'mast'
p1688
S'maswa'
p1689
sS'u'
p1690
S'U'
p1691
sS'bankar'
p1692
S'baMkara'
p1693
sS'alg'
p1694
S'alaga'
p1695
sS'pta'
p1696
S'pawA'
p1697
sS'suni'
p1698
S'sunI'
p1699
sS'mna'
p1700
S'manA'
p1701
sS'sharafat'
p1702
S'SarAPawa'
p1703
sS'suna'
p1704
S'sunA'
p1705
sS'mne'
p1706
S'mane'
p1707
sS'sune'
p1708
S'sune'
p1709
sS'bharose'
p1710
S'Barose'
p1711
sS'tu'
p1712
S'tU'
p1713
sS'kbhi'
p1714
S'kaMGI'
p1715
sS'to'
p1716
S'wo'
p1717
sS'tm'
p1718
S'wama'
p1719
sS'th'
p1720
S'wo'
p1721
sS'te'
p1722
S'We'
p1723
sS'tb'
p1724
S'waba'
p1725
sS'ta'
p1726
S'WA'
p1727
sS'hisab'
p1728
S'hisAba'
p1729
sS'khushi'
p1730
S'KuSI'
p1731
sS'fas'
p1732
S'PEMsa'
p1733
sS'fat'
p1734
S'PEta'
p1735
sS'baton'
p1736
S'bAwoM'
p1737
sS'daalo'
p1738
S'dAlo'
p1739
sS'kyoki'
p1740
S'kyoMki'
p1741
sS'daala'
p1742
S'dAlA'
p1743
sS'fursat'
p1744
S'Pursawa'
p1745
sS'todenge'
p1746
S'wodZeMge'
p1747
sS'aakhiri'
p1748
S'aMgarI'
p1749
sS'bdiya'
p1750
S'baDZiyA'
p1751
sS'llo'
p1752
S'lo'
p1753
sS'isme'
p1754
S'isameM'
p1755
sS'haar'
p1756
S'hAyara'
p1757
sS'dhamki'
p1758
S'XamakI'
p1759
sS'aapse'
p1760
S'Apase'
p1761
sS'haan'
p1762
S'hAnana'
p1763
sS'haal'
p1764
S'hAla'
p1765
sS'pass'
p1766
S'pAsa'
p1767
sS'waale'
p1768
S'vAale'
p1769
sS'abb'
p1770
S'aba'
p1771
sS'uthao'
p1772
S'uTAo'
p1773
sS'abe'
p1774
S'aBI'
p1775
sS'karne'
p1776
S'karane'
p1777
sS'sun'
p1778
S'suna'
p1779
sS'mushaq'
p1780
S'mukkA'
p1781
sS'karna'
p1782
S'karanA'
p1783
sS'aby'
p1784
S'aBI'
p1785
sS'kyaa'
p1786
S'kyArA'
p1787
sS'gunah'
p1788
S'gunAha'
p1789
sS'valo'
p1790
S'vAloM'
p1791
sS'hasi'
p1792
S'hAsya'
p1793
sS'vala'
p1794
S'vAlA'
p1795
sS'inhen'
p1796
S'inheM'
p1797
sS'tjme'
p1798
S'tjme'
p1799
sS'vale'
p1800
S'vAle'
p1801
sS'doobenge'
p1802
S'dUbeMge'
p1803
sS'ganda'
p1804
S'gaMxA'
p1805
sS'jayega'
p1806
S'jAyegA'
p1807
sS'jati'
p1808
S'jAwI'
p1809
sS'jayege'
p1810
S'jAyeMge'
p1811
sS'jate'
p1812
S'jAwe'
p1813
sS'jayegi'
p1814
S'jAyegI'
p1815
sS'jata'
p1816
S'jAwA'
p1817
sS'jiske'
p1818
S'jisake'
p1819
sS'samaj'
p1820
S'samAja'
p1821
sS'nazaare'
p1822
S'najZAre'
p1823
sS'hoga'
p1824
S'hogA'
p1825
sS'hogi'
p1826
S'hogI'
p1827
sS'padega'
p1828
S'padZegA'
p1829
sS'tumhari'
p1830
S'wumhArI'
p1831
sS'poochna'
p1832
S'pUCanA'
p1833
sS'gaay'
p1834
S'gAya'
p1835
sS'tumhare'
p1836
S'wumhAre'
p1837
sS'ladki'
p1838
S'ladZakI'
p1839
sS'ladko'
p1840
S'ladZakoM'
p1841
sS'khas'
p1842
S'KAsa'
p1843
sS'ladka'
p1844
S'ladZakA'
p1845
sS'ladke'
p1846
S'ladZake'
p1847
sS'door'
p1848
S'xUra'
p1849
sS'chillate'
p1850
S'cillAwe'
p1851
sS'yaha'
p1852
S'yaha'
p1853
sS'yahi'
p1854
S'yahI'
p1855
sS'teer'
p1856
S'wIra'
p1857
sS'bajar'
p1858
S'bAjAra'
p1859
sS'bakwas'
p1860
S'bakavAsa'
p1861
sS'lkr'
p1862
S'lakara'
p1863
sS'iss'
p1864
S'isa'
p1865
sS'v'
p1866
S'va'
p1867
sS'gaa-'
p1868
S'ga'
p1869
sS'sahi'
p1870
S'sahI'
p1871
sS'satiyha'
p1872
S'saRya'
p1873
sS'puchiyo'
p1874
S'patariyo'
p1875
sS'oye'
p1876
S'oye'
p1877
sS'fr'
p1878
S'Para'
p1879
sS'barbaad'
p1880
S'barbAxa'
p1881
sS'maara'
p1882
S'mAwrA'
p1883
sS'par'
p1884
S'para'
p1885
sS'rhke'
p1886
S'rahake'
p1887
sS'a'
p1888
g152
sS'ulta'
p1889
S'ultA'
p1890
sS'doosre'
p1891
S'xUsare'
p1892
sS'maan'
p1893
S'mAyana'
p1894
sS'jyda'
p1895
S'jyaxA'
p1896
sS'behen'
p1897
S'behena'
p1898
sS'shadi'
p1899
S'SAxI'
p1900
sS'pyarr'
p1901
S'pyAra'
p1902
sS'panoooti'
p1903
S'panoooti'
p1904
sS'dubara'
p1905
S'xubArA'
p1906
sS'kyuki'
p1907
S'kyUkI'
p1908
sS'letey'
p1909
S'leweM'
p1910
sS'utha'
p1911
S'uTA'
p1912
sS'phli'
p1913
S'pahalI'
p1914
sS'insaan'
p1915
S'inasAna'
p1916
sS'baap'
p1917
S'bApa'
p1918
sS'baar'
p1919
S'bAyara'
p1920
sS'baat'
p1921
S'bArAwa'
p1922
sS'phle'
p1923
S'pahale'
p1924
sS'prachar'
p1925
S'pracAra'
p1926
sS'maregi'
p1927
S'maregI'
p1928
sS'zyada'
p1929
S'jyAxA'
p1930
sS'pae'
p1931
S'pAe'
p1932
sS'yh'
p1933
S'yaha'
p1934
sS'humhe'
p1935
S'hamahi'
p1936
sS'yarrrr'
p1937
S'yAra'
p1938
sS'yo'
p1939
S'yoM'
p1940
sS'ya'
p1941
S'yA'
p1942
sS'ye'
p1943
S'ye'
p1944
sS'rehta'
p1945
S'rahawA'
p1946
sS'dedo'
p1947
S'xexo'
p1948
sS'rehti'
p1949
S'rahawI'
p1950
sS'yr'
p1951
S'yra'
p1952
sS'dede'
p1953
S'deda'
p1954
sS'seedha'
p1955
S'sIXA'
p1956
sS'krta'
p1957
S'karawA'
p1958
sS'krte'
p1959
S'karawe'
p1960
sS'krti'
p1961
S'karawI'
p1962
sS'kutte'
p1963
S'kuwwe'
p1964
sS'todi'
p1965
S'wodZI'
p1966
sS'abhi'
p1967
S'abBI'
p1968
sS'babaji'
p1969
S'bAbAjI'
p1970
sS'pehli'
p1971
S'pahalI'
p1972
sS'karege'
p1973
S'kareMge'
p1974
sS'pehle'
p1975
S'pahale'
p1976
sS'karega'
p1977
S'karegA'
p1978
sS'pehla'
p1979
S'pahalA'
p1980
sS'bass'
p1981
S'bAsa'
p1982
sS'ase'
p1983
S'Ese'
p1984
sS'basa'
p1985
S'basa'
p1986
sS'bhulna'
p1987
S'BakatanA'
p1988
sS'kon'
p1989
S'kOna'
p1990
sS'bhad'
p1991
S'blada'
p1992
sS'bhag'
p1993
S'BIAga'
p1994
sS'dino'
p1995
S'xinoM'
p1996
sS'bhai'
p1997
S'bahAI'
p1998
sS'bhav'
p1999
S'bahAva'
p2000
sS'bhar'
p2001
S'bahAra'
p2002
sS'dono'
p2003
S'xonoM'
p2004
sS'samjhta'
p2005
S'samaJawA'
p2006
sS'koi'
p2007
S'koI'
p2008
sS'rakha'
p2009
S'raKA'
p2010
sS'"'
p2011
g2011
sS'rakhe'
p2012
S'raKe'
p2013
sS'zindgi'
p2014
S'jZiMxagI'
p2015
sS'rakhi'
p2016
S'rAKI'
p2017
sS'koe'
p2018
S'koI'
p2019
sS'hote'
p2020
S'howe'
p2021
sS'hota'
p2022
S'howA'
p2023
sS'banane'
p2024
S'banAne'
p2025
sS'banana'
p2026
S'banAnA'
p2027
sS'hoti'
p2028
S'howI'
p2029
sS'akal'
p2030
S'akAla'
p2031
sS'paapa'
p2032
S'pApA'
p2033
sS'pichle'
p2034
S'piCale'
p2035
sS'mmme'
p2036
S'mammaNa'
p2037
sS'akar'
p2038
S'AkAra'
p2039
sS'b'
p2040
S'ba'
p2041
sS'aaa'
p2042
g152
sS'dta'
p2043
S'datA'
p2044
sS'sth'
p2045
S'sawaha'
p2046
sS'aaj'
p2047
S'AnAja'
p2048
sS'aap'
p2049
S'Apa'
p2050
sS'fuche'
p2051
S'Pazse'
p2052
sS'bhi'
p2053
S'bahI'
p2054
sS'humari'
p2055
S'hamArI'
p2056
sS'karu'
p2057
S'karU'
p2058
sS'aadhe'
p2059
g152
sS'humare'
p2060
S'hamAre'
p2061
sS'gaana'
p2062
S'gADZanA'
p2063
sS'hoomn'
p2064
S'hUmana'
p2065
sS'padte'
p2066
S'padZawe'
p2067
sS'padta'
p2068
S'padZawA'
p2069
sS'agaye'
p2070
S'a5'
p2071
sS'galo'
p2072
S'Galo'
p2073
sS'karo'
p2074
S'karo'
p2075
sS'padti'
p2076
S'padZawI'
p2077
sS'lie'
p2078
S'lie'
p2079
sS'dhoka'
p2080
S'XoKA'
p2081
sS'lia'
p2082
S'liyA'
p2083
sS'lio'
p2084
S'liva'
p2085
sS'padhne'
p2086
S'paDZane'
p2087
sS'liy'
p2088
S'lie'
p2089
sS'hga'
p2090
S'hOYgA'
p2091
sS'janam'
p2092
S'janama'
p2093
sS'kab'
p2094
S'kaba'
p2095
sS'amal'
p2096
S'amala'
p2097
sS'kam'
p2098
S'kAma'
p2099
sS'kal'
p2100
S'kAla'
p2101
sS'rhi'
p2102
S'rahI'
p2103
sS'kar'
p2104
S'kara'
p2105
sS'rho'
p2106
S'raho'
p2107
sS'rha'
p2108
S'rahA'
p2109
sS'apki'
p2110
S'ApakI'
p2111
sS'rhe'
p2112
S'rahe'
p2113
sS'apko'
p2114
S'Apako'
p2115
sS'kb'
p2116
S'ke'
p2117
sS'ka'
p2118
S'kA'
p2119
sS'ke'
p2120
S'ke'
p2121
sS'wajeh'
p2122
S'vajaha'
p2123
sS'ki'
p2124
S'kI'
p2125
sS'ko'
p2126
S'ko'
p2127
sS'km'
p2128
S'kama'
p2129
sS'kr'
p2130
S'kara'
p2131
sS'sabko'
p2132
S'sabako'
p2133
sS'ku'
p2134
S'ko'
p2135
sS'ky'
p2136
S'kI'
p2137
sS'raat'
p2138
S'rAita'
p2139
sS'sabke'
p2140
S'sabake'
p2141
sS'aage'
p2142
S'Age'
p2143
sS'booza'
p2144
S'baztA'
p2145
sS'dungiya'
p2146
S'XuMgiyA'
p2147
sS'hoshiyar'
p2148
S'hoSiyAra'
p2149
sS'kharch'
p2150
S'Karca'
p2151
sS'upar'
p2152
S'Upara'
p2153
sS'jindgi'
p2154
S'jiMxagI'
p2155
sS'kadr'
p2156
S'kaxara'
p2157
sS'uriya'
p2158
S'OrEyA'
p2159
sS'pareshaan'
p2160
S'pareSAna'
p2161
sS'mein'
p2162
S'mEina'
p2163
sS'shootegi'
p2164
S'shootegi'
p2165
sS'hia'
p2166
S'hiyA'
p2167
sS'aasuo'
p2168
S'AMsuoM'
p2169
sS'phr'
p2170
S'pahara'
p2171
sS'koile'
p2172
S'koyale'
p2173
sS'sanam'
p2174
S'sanama'
p2175
sS'chuki'
p2176
S'cukI'
p2177
sS'chuke'
p2178
S'cuke'
p2179
sS'chuka'
p2180
S'cukA'
p2181
sS'zarori'
p2182
S'jararI'
p2183
sS'bandhan'
p2184
S'baMXAna'
p2185
sS'ary'
p2186
S'Arya'
p2187
sS'jada'
p2188
S'jAxA'
p2189
sS'mitha'
p2190
S'mITA'
p2191
sS'bare'
p2192
S'bAre'
p2193
sS'are'
p2194
S'are'
p2195
sS'2din'
p2196
S'2jI'
p2197
sS'laat'
p2198
S'lAita'
p2199
sS'dosti'
p2200
S'xoswI'
p2201
sS'dosto'
p2202
S'xoswoM'
p2203
sS'tjhse'
p2204
S'wuJase'
p2205
sS'bachpan'
p2206
S'bacapana'
p2207
sS'paisa'
p2208
S'paisA'
p2209
sS'woh'
p2210
S'voha'
p2211
sS'paise'
p2212
S'pAisa'
p2213
sS'paiso'
p2214
S'pAisa'
p2215
sS'likha'
p2216
S'liKA'
p2217
sS'khatam'
p2218
S'KZawama'
p2219
sS'maarti'
p2220
S'mArawI'
p2221
sS'pagal'
p2222
S'pAgala'
p2223
sS'c'
p2224
S'ka'
p2225
sS'sadai'
p2226
S'sabA'
p2227
sS'saanse'
p2228
S'sabase'
p2229
sS'kilaste'
p2230
S'kasawe'
p2231
sS'khilaf'
p2232
S'KilAPa'
p2233
sS'likhi'
p2234
S'liKI'
p2235
sS'samjha'
p2236
S'samaJA'
p2237
sS'thok'
p2238
S'Woka'
p2239
sS'hamesha'
p2240
S'hameSA'
p2241
sS'pde'
p2242
S'padZe'
p2243
sS'andhere'
p2244
S'aMXere'
p2245
sS'loat'
p2246
S'lota'
p2247
sS'ch***yapa'
p2248
S'ch***yapa'
p2249
sS'pr'
p2250
S'para'
p2251
sS'karlo'
p2252
S'kArlo'
p2253
sS'dum'
p2254
S'xama'
p2255
sS'usko'
p2256
S'usako'
p2257
sS'uska'
p2258
S'usakA'
p2259
sS'chle'
p2260
S'cale'
p2261
sS'karle'
p2262
S'karale'
p2263
sS'pd'
p2264
S'padZa'
p2265
sS'pe'
p2266
S'pe'
p2267
sS'dur'
p2268
S'xUra'
p2269
sS'pi'
p2270
S'pI'
p2271
sS'aakar'
p2272
S'Akara'
p2273
sS'yakeen'
p2274
S'yakIna'
p2275
sS'gal'
p2276
S'gAla'
p2277
sS'muje'
p2278
S'muJe'
p2279
sS'gai'
p2280
S'gaI'
p2281
sS'gae'
p2282
S'gae'
p2283
sS'bihario'
p2284
S'bihAriyo'
p2285
sS'phuch'
p2286
S'pahuMca'
p2287
sS'pyaar'
p2288
S'pyAra'
p2289
sS'kare'
p2290
S'kare'
p2291
sS'isliye'
p2292
S'isaliye'
p2293
sS'mujhse'
p2294
S'muJase'
p2295
sS'bht'
p2296
S'bahawa'
p2297
sS'dunia'
p2298
S'xuniyA'
p2299
sS'dimg'
p2300
S'diggI'
p2301
sS'wapas'
p2302
S'vApasa'
p2303
sS'pahen'
p2304
S'pAhana'
p2305
sS'usey'
p2306
S'useV'
p2307
sS'bhartiya'
p2308
S'BArawIya'
p2309
sS'laundiya'
p2310
S'lIdiyA'
p2311
sS'y'
p2312
S'ya'
p2313
sS'kewal'
p2314
S'kevala'
p2315
sS'cheez'
p2316
S'cIjZa'
p2317
sS'pahali'
p2318
S'pahalI'
p2319
sS'chore'
p2320
S'corI'
p2321
sS'bhala'
p2322
S'bahAla'
p2323
sS'bhale'
p2324
S'bahAla'
p2325
sS'chori'
p2326
S'corI'
p2327
sS'rulane'
p2328
S'rUlAne'
p2329
sS'jhand'
p2330
S'JAMda'
p2331
sS'jhank'
p2332
S'JAMka'
p2333
sS'manna'
p2334
S'mAnanA'
p2335
sS'bin'
p2336
S'bina'
p2337
sS'deti'
p2338
S'xewI'
p2339
sS'khul'
p2340
S'Kula'
p2341
sS'khatm'
p2342
S'Kawma'
p2343
sS'bihari'
p2344
S'bihArI'
p2345
sS'khud'
p2346
S'Kuxa'
p2347
sS'chayiye'
p2348
S'CAMte'
p2349
sS'kasi'
p2350
S'KAsI'
p2351
sS'krde'
p2352
S'karaxe'
p2353
sS'kase'
p2354
S'kEse'
p2355
sS'bande'
p2356
S'bAMXe'
p2357
sS'khus'
p2358
S'KuSa'
p2359
sS'badiya'
p2360
S'baDZiyA'
p2361
sS'ladkian'
p2362
S'ladakiyA'
p2363
sS'hjar'
p2364
S'hajAra'
p2365
sS'bahar'
p2366
S'bAhara'
p2367
sS'sunao'
p2368
S'sunAo'
p2369
sS'chinne'
p2370
S'CInane'
p2371
sS'shabd'
p2372
S'Sabxa'
p2373
sS'lathi'
p2374
S'lATI'
p2375
sS'bach'
p2376
S'baca'
p2377
sS'bahaduri'
p2378
S'bahAxurI'
p2379
sS'parche'
p2380
S'parce'
p2381
sS'parcha'
p2382
S'parcA'
p2383
sS'ekdam'
p2384
S'ekaxama'
p2385
sS'saal'
p2386
S'sAyala'
p2387
sS'pee'
p2388
S'pI'
p2389
sS'lgoge'
p2390
S'lagage'
p2391
sS'bd'
p2392
S'baDZa'
p2393
sS'be'
p2394
S'BI'
p2395
sS'nahane'
p2396
S'nahAne'
p2397
sS'bc'
p2398
S'ba'
p2399
sS'bn'
p2400
S'bana'
p2401
sS'bh'
p2402
S'baha'
p2403
sS'bi'
p2404
S'BI'
p2405
sS'uff'
p2406
S'uPPa'
p2407
sS'bt'
p2408
S'bata'
p2409
sS'achi'
p2410
S'acI'
p2411
sS'br'
p2412
S'bara'
p2413
sS'bs'
p2414
S'basa'
p2415
sS'ache'
p2416
S'Ace'
p2417
sS'ijjat'
p2418
S'ijjawa'
p2419
sS'jeeta'
p2420
S'jIwA'
p2421
sS'acha'
p2422
S'aCA'
p2423
sS'anath'
p2424
S'anAWa'
p2425
sS'padai'
p2426
S'paDZAI'
p2427
sS'kabhi'
p2428
S'kaBI'
p2429
sS'krva'
p2430
S'karavA'
p2431
sS'yehi'
p2432
S'yahI'
p2433
sS'aajkal'
p2434
S'Ajakara'
p2435
sS'sake'
p2436
S'sake'
p2437
sS'hadapne'
p2438
S'hadZapane'
p2439
sS'tuj'
p2440
S'wuJa'
p2441
sS'thodena'
p2442
S'WodZA'
p2443
sS'dhkan'
p2444
S'XaMsa'
p2445
sS'neki'
p2446
S'nekI'
p2447
sS'lenge'
p2448
S'leMge'
p2449
sS'wrna'
p2450
S'varanA'
p2451
sS'gali'
p2452
S'gAlI'
p2453
sS'lengi'
p2454
S'leMgI'
p2455
sS'soch'
p2456
S'soca'
p2457
sS'milna'
p2458
S'milanA'
p2459
sS'milne'
p2460
S'milane'
p2461
sS'reet'
p2462
S'reta'
p2463
sS'varshik'
p2464
S'vArRika'
p2465
sS'chodkr'
p2466
S'CodZakara'
p2467
sS'bakwaas'
p2468
S'biSvAsa'
p2469
sS'us'
p2470
S'usa'
p2471
sS'un'
p2472
S'una'
p2473
sS'kahan'
p2474
S'kahAM'
p2475
sS'khaate'
p2476
S'KAswe'
p2477
sS'chai'
p2478
S'BAI'
p2479
sS'bahiya'
p2480
S'baMWiyA'
p2481
sS'maja'
p2482
S'majA'
p2483
sS'naseeb'
p2484
S'nasIba'
p2485
sS'lye'
p2486
S'laya'
p2487
sS'chap'
p2488
S'CApa'
p2489
sS'bajwaenge'
p2490
S'bacAeMge'
p2491
sS'lyo'
p2492
S'lyU'
p2493
sS'kamau'
p2494
S'kamAU'
p2495
sS'naa'
p2496
S'nAnA'
p2497
sS'bijli'
p2498
S'bijalI'
p2499
sS'shaadi'
p2500
S'SAxI'
p2501
sS'isiliye'
p2502
S'isIliye'
p2503
sS'jabki'
p2504
S'jabaki'
p2505
sS'nam'
p2506
S'nAma'
p2507
sS'raina'
p2508
S'rAina'
p2509
sS'jagah'
p2510
S'jagaha'
p2511
sS'lena'
p2512
S'lenA'
p2513
sS'dala'
p2514
S'dAlA'
p2515
sS'pujari'
p2516
S'pujArI'
p2517
sS'sikkon'
p2518
S'sikkoM'
p2519
sS'papa'
p2520
S'pApA'
p2521
sS'batani'
p2522
S'bawAnI'
p2523
sS'btayega'
p2524
S'bawAyegA'
p2525
sS'batana'
p2526
S'bawAnA'
p2527
sS'jaisi'
p2528
S'jAyasI'
p2529
sS'e'
p2530
g2530
sS'jaisa'
p2531
S'jafsa'
p2532
sS'lagwaenge'
p2533
S'lagAeMge'
p2534
sS'jaise'
p2535
S'jaise'
p2536
sS'tumse'
p2537
S'wumase'
p2538
sS'agr'
p2539
S'agara'
p2540
sS'essay'
p2541
S'ekya'
p2542
sS'khtm'
p2543
S'Kawma'
p2544
sS'khte'
p2545
S'kahawe'
p2546
sS'gana'
p2547
S'gAnA'
p2548
sS'kate'
p2549
S'kAte'
p2550
sS'gi'
p2551
S'gaI'
p2552
sS'lallu'
p2553
S'lAlU'
p2554
sS'khudke'
p2555
S'KuxakI'
p2556
sS'buddhe'
p2557
S'bOxXa'
p2558
sS'saamne'
p2559
S'sAmane'
p2560
sS'ameen'
p2561
S'amIna'
p2562
sS'rulaye'
p2563
S'rulAyA'
p2564
sS'jaenge'
p2565
S'jAeMge'
p2566
sS'jise'
p2567
S'jEse'
p2568
sS'esa'
p2569
S'EsA'
p2570
sS'kch'
p2571
S'kaCa'
p2572
sS'maar'
p2573
S'mAMra'
p2574
sS'thoda'
p2575
S'WodZA'
p2576
sS'thode'
p2577
S'WodZe'
p2578
sS'thodi'
p2579
S'WodZI'
p2580
sS'aaye'
p2581
S'WAye'
p2582
sS'peechle'
p2583
S'pagale'
p2584
sS'karwane'
p2585
S'karavAne'
p2586
sS'pdega'
p2587
S'padZegA'
p2588
sS'bachha'
p2589
S'BACA'
p2590
sS'bhool'
p2591
S'BUla'
p2592
sS'bhoot'
p2593
S'bahUwa'
p2594
sS'bde'
p2595
S'badZe'
p2596
sS'bda'
p2597
S'badZA'
p2598
sS'pareshan'
p2599
S'pareSAna'
p2600
sS'bdi'
p2601
S'badZI'
p2602
sS'khokhli'
p2603
S'KoKalI'
p2604
sS'kafi'
p2605
S'kAPI'
p2606
sS'admi'
p2607
S'AxamI'
p2608
sS'jarur'
p2609
S'jarUra'
p2610
sS'lagta'
p2611
S'lagawA'
p2612
sS'haaji'
p2613
S'hAjI'
p2614
sS'lagti'
p2615
S'lagawI'
p2616
sS'sehmat'
p2617
S'sahamawa'
p2618
sS'banate'
p2619
S'banAwe'
p2620
sS'bdhya'
p2621
S'baMXAyA'
p2622
sS'sirf'
p2623
S'sirPa'
p2624
sS'app'
p2625
S'Apa'
p2626
sS'manne'
p2627
S'mAnane'
p2628
sS'babuji'
p2629
S'bAbUjI'
p2630
sS'use'
p2631
S'use'
p2632
sS'chd'
p2633
S'caDZa'
p2634
sS'chl'
p2635
S'cala'
p2636
sS'usi'
p2637
S'usI'
p2638
sS'uss'
p2639
S'usa'
p2640
sS'chu'
p2641
S'CU'
p2642
sS'bethe'
p2643
S'beWe'
p2644
sS'tharki'
p2645
S'WirakI'
p2646
sS'angrezi'
p2647
S'aMgrejZI'
p2648
sS'dalne'
p2649
S'dAlane'
p2650
sS'tharkan'
p2651
S'WarIna'
p2652
sS'hein'
p2653
S'hIM'
p2654
sS'azaad'
p2655
S'AjZAxa'
p2656
sS'chahre'
p2657
S'cahare'
p2658
sS'thik'
p2659
S'TIka'
p2660
sS'mahilayo'
p2661
S'mahilayo'
p2662
sS'nawaz'
p2663
S'navAjZa'
p2664
sS'rkha'
p2665
S'raKA'
p2666
sS'meet'
p2667
S'mOwa'
p2668
sS'salay'
p2669
S'salAI'
p2670
sS'tab'
p2671
S'waba'
p2672
sS'tal'
p2673
S'tAla'
p2674
sS'vaise'
p2675
S'vaise'
p2676
sS'shayed'
p2677
S'Sa'
p2678
sS'kru'
p2679
S'krU'
p2680
sS'vaisa'
p2681
S'vAisa'
p2682
sS'tak'
p2683
S'waka'
p2684
sS'ayengeee'
p2685
S'AeMge'
p2686
sS'chahiye'
p2687
S'cAhiye'
p2688
sS'uchal'
p2689
S'uCAla'
p2690
sS'dharm'
p2691
S'Xarma'
p2692
sS'dhyaan'
p2693
S'XyAna'
p2694
sS'inse'
p2695
S'inase'
p2696
sS'dekhen'
p2697
S'xeKeM'
p2698
sS'hawa'
p2699
S'havA'
p2700
sS'jinhe'
p2701
S'jinheM'
p2702
sS'isse'
p2703
S'isase'
p2704
sS'paas'
p2705
S'pAWasa'
p2706
sS'popat'
p2707
S'popata'
p2708
sS'bina'
p2709
S'binA'
p2710
sS'baapu'
p2711
S'bApU'
p2712
sS'sapnon'
p2713
S'sapanoM'
p2714
sS'kbi'
p2715
S'kaBI'
p2716
sS'nigal'
p2717
S'nigala'
p2718
sS'nigam'
p2719
S'nigama'
p2720
sS'ladkia'
p2721
S'ladakiyA'
p2722
sS'lg'
p2723
S'laga'
p2724
sS'le'
p2725
S'le'
p2726
sS'dekhne'
p2727
S'xeKane'
p2728
sS'lo'
p2729
S'lo'
p2730
sS'wajha'
p2731
S'va'
p2732
sS'li'
p2733
S'lI'
p2734
sS'khel'
p2735
S'Kela'
p2736
sS'dunga'
p2737
S'xUMgA'
p2738
sS'dikh'
p2739
S'xiKa'
p2740
sS'mubariq'
p2741
S'mubariq'
p2742
sS'dab'
p2743
S'xaba'
p2744
sS'dal'
p2745
S'xala'
p2746
sS'kisi'
p2747
S'kisI'
p2748
sS'panga'
p2749
S'paMgA'
p2750
sS'dar'
p2751
S'xara'
p2752
sS'dusro'
p2753
S'xUsaroM'
p2754
sS'kholkr'
p2755
S'Kolakara'
p2756
sS'pakau'
p2757
S'pa'
p2758
sS'betta'
p2759
S'bIwawA'
p2760
sS'jhela'
p2761
S'Jela'
p2762
sS'bachi'
p2763
S'bacI'
p2764
sS'bacho'
p2765
S'baco'
p2766
sS'modi'
p2767
S'moxI'
p2768
sS'bacha'
p2769
S'bacA'
p2770
sS'katta'
p2771
S'kattA'
p2772
sS'jarurat'
p2773
S'jarurawa'
p2774
sS'ldke'
p2775
S'ladZake'
p2776
sS'ldka'
p2777
S'ladZakA'
p2778
sS'ldko'
p2779
S'ladZakoM'
p2780
sS'ldki'
p2781
S'ladZakI'
p2782
sS'banao'
p2783
S'banAo'
p2784
sS'tyar'
p2785
S'tIAra'
p2786
sS'jitni'
p2787
S'jiwanI'
p2788
sS'reh'
p2789
S'raha'
p2790
sS'aata'
p2791
S'ARtA'
p2792
sS'mata'
p2793
S'mAwA'
p2794
sS'aati'
p2795
S'BAwI'
p2796
sS'jisme'
p2797
S'jisameM'
p2798
sS'ban'
p2799
S'bana'
p2800
sS'kharb'
p2801
S'Karaba'
p2802
sS'kaun'
p2803
S'kauna'
p2804
sS'pkode'
p2805
S'pakodZe'
p2806
sS'khelte'
p2807
S'Kelawe'
p2808
sS'faltu'
p2809
S'PAlawU'
p2810
sS'maalik'
p2811
S'mAlika'
p2812
sS'bhukha'
p2813
S'BUKA'
p2814
sS'pgl'
p2815
S'pala'
p2816
sS'sach'
p2817
S'saca'
p2818
sS'kaise'
p2819
S'kaise'
p2820
sS'dhunde'
p2821
S'DUMDe'
p2822
sS'kaisa'
p2823
S'kAIsa'
p2824
sS'bnda/i'
p2825
S'bnda/i'
p2826
sS'mje'
p2827
S'maje'
p2828
sS'nikalna'
p2829
S'nikAlanA'
p2830
sS'nikalne'
p2831
S'nikAlane'
p2832
sS'uda'
p2833
S'udZA'
p2834
sS'udd'
p2835
S'udZaxa'
p2836
sS'gayi'
p2837
S'gayI'
p2838
sS'gaya'
p2839
S'gayA'
p2840
sS'khujli'
p2841
S'KujalI'
p2842
sS'gaye'
p2843
S'gaye'
p2844
sS'sakta'
p2845
S'sakawA'
p2846
sS'btaye'
p2847
S'bawAye'
p2848
sS'hamara'
p2849
S'hamArA'
p2850
sS'batao'
p2851
S'bawAo'
p2852
sS'sakte'
p2853
S'sakawe'
p2854
sS'tarah'
p2855
S'waraha'
p2856
sS'tabi'
p2857
S'waBI'
p2858
sS'jinko'
p2859
S'jinako'
p2860
sS'tale'
p2861
S'wAle'
p2862
sS'mil'
p2863
S'mila'
p2864
sS'chutiyaa'
p2865
S'cutiyA'
p2866
sS'waise'
p2867
S'vAisa'
p2868
sS'kaiko'
p2869
S'kaMkaNa'
p2870
sS'wha'
p2871
S'vahAM'
p2872
sS'talash'
p2873
S'walASa'
p2874
sS'masti'
p2875
S'maswI'
p2876
sS'pyr'
p2877
S'pa'
p2878
sS'whi'
p2879
S'vahI'
p2880
sS'dubo'
p2881
S'dubo'
p2882
sS'chahat'
p2883
S'cAhawa'
p2884
sS'dariya'
p2885
S'xariyA'
p2886
sS'dube'
p2887
S'xube'
p2888
sS'ucchalo'
p2889
S'ugala'
p2890
sS'pdhne'
p2891
S'paDZane'
p2892
sS'dena'
p2893
S'xenA'
p2894
sS'dene'
p2895
S'xene'
p2896
sS'bhaiya'
p2897
S'BEyA'
p2898
sS'bhen'
p2899
S'bahena'
p2900
sS'smjhane'
p2901
S'samaJAne'
p2902
sS'ni'
p2903
S'ne'
p2904
sS'jay'
p2905
S'jaya'
p2906
sS'sochna'
p2907
S'socanA'
p2908
sS'hadd'
p2909
S'haxa'
p2910
sS'dikhao'
p2911
S'xiKAo'
p2912
sS'kse'
p2913
S'kEse'
p2914
sS'jao'
p2915
S'jAo'
p2916
sS'jal'
p2917
S'jala'
p2918
sS'ilawa'
p2919
S'ilAvA'
p2920
sS'jai'
p2921
S'jAe'
p2922
sS'tune'
p2923
S'wUne'
p2924
sS'jae'
p2925
S'jAe'
p2926
sS'jab'
p2927
S'jaba'
p2928
sS'ksh'
p2929
S'kRa'
p2930
sS'jaa'
p2931
S'jAnA'
p2932
sS'leli'
p2933
S'leslI'
p2934
sS'abbe'
p2935
S'abe'
p2936
sS'tbi'
p2937
S'waBI'
p2938
sS'jasi'
p2939
S'jEsI'
p2940
sS'h'
p2941
S'ha'
p2942
sS'karke'
p2943
S'karake'
p2944
sS'aek'
p2945
S'eka'
p2946
sS'btati'
p2947
S'bawAwI'
p2948
sS'unko'
p2949
S'unako'
p2950
sS'unki'
p2951
S'unakI'
p2952
sS'unke'
p2953
S'unake'
p2954
sS'unka'
p2955
S'unakA'
p2956
sS'bta'
p2957
S'bawA'
p2958
sS'bhootni'
p2959
S'BakawI'
p2960
sS'itni'
p2961
S'iwanI'
p2962
sS'panti'
p2963
S'pEMtI'
p2964
sS'karwa'
p2965
S'karavA'
p2966
sS'itne'
p2967
S'iwane'
p2968
sS'itna'
p2969
S'iwanA'
p2970
sS'smjhne'
p2971
S'samaJane'
p2972
sS'vhi'
p2973
S'vahI'
p2974
sS'keh'
p2975
S'kaha'
p2976
sS'tuje'
p2977
S'wuJe'
p2978
sS'ker'
p2979
S'keyara'
p2980
sS'alkas'
p2981
S'aMka'
p2982
sS'bekaar'
p2983
S'bekAra'
p2984
sS'aegi'
p2985
S'AegI'
p2986
sS'aega'
p2987
S'AegA'
p2988
sS'marte'
p2989
S'mArawe'
p2990
sS'gidgidahat'
p2991
S'gidZagidZAhata'
p2992
sS'wale'
p2993
S'vAle'
p2994
sS'wala'
p2995
S'vAlA'
p2996
sS'walo'
p2997
S'vAloM'
p2998
sS'wali'
p2999
S'vAlI'
p3000
sS'knsa'
p3001
S'kaMsA'
p3002
sS'khaak'
p3003
S'KAtaka'
p3004
sS'kahu'
p3005
S'kAhU'
p3006
sS'sara'
p3007
S'sArA'
p3008
sS'sare'
p3009
S'sAre'
p3010
sS'kahi'
p3011
S'kahI'
p3012
sS'mudde'
p3013
S'muxxe'
p3014
sS'yad'
p3015
S'yAxa'
p3016
sS'muddo'
p3017
S'muxxoM'
p3018
sS'kaha'
p3019
S'kahA'
p3020
sS'phele'
p3021
S'pahele'
p3022
sS'lgi'
p3023
S'lagI'
p3024
sS'bedar'
p3025
S'baMkara'
p3026
sS'lga'
p3027
S'lagA'
p3028
sS'lge'
p3029
S'lage'
p3030
sS'hme'
p3031
S'hame'
p3032
sS'chlta'
p3033
S'calawA'
p3034
sS'bimari'
p3035
S'bImArI'
p3036
sS'maur'
p3037
S'mAWura'
p3038
sS'kuch'
p3039
S'kuCa'
p3040
sS'chalu'
p3041
S'cAlU'
p3042
sS'khta-2'
p3043
S'khta-2'
p3044
sS'agar'
p3045
S'agara'
p3046
sS'chali'
p3047
S'calI'
p3048
sS'umar'
p3049
S'umara'
p3050
sS'chalo'
p3051
S'cAla'
p3052
sS'chala'
p3053
S'cAla'
p3054
sS'chale'
p3055
S'cale'
p3056
sS'lambi'
p3057
S'laMbI'
p3058
sS'kise'
p3059
S'kEse'
p3060
sS'kuki'
p3061
S'kukI'
p3062
sS'site'
p3063
S'sIteM'
p3064
sS'vo'
p3065
S'vo'
p3066
sS'kuchh'
p3067
S'kuCa'
p3068
sS'murane'
p3069
S'marane'
p3070
sS'likhai'
p3071
S'liKAI'
p3072
sS'rahiyo'
p3073
S'raKiyA'
p3074
sS'vishwavidyalaya'
p3075
S'viSvavixyAlaya'
p3076
sS'jamane'
p3077
S'jamAne'
p3078
sS'dusu'
p3079
S'dUsU'
p3080
sS'dheere'
p3081
S'XIre'
p3082
sS'choot'
p3083
S'CUta'
p3084
sS'jawan'
p3085
S'javAna'
p3086
sS'mtlb'
p3087
S'mawalaba'
p3088
sS'jawab'
p3089
S'javAba'
p3090
sS'gareeb'
p3091
S'garIba'
p3092
sS'muchhe'
p3093
S'mUCeM'
p3094
sS'uthale'
p3095
S'uWale'
p3096
sS'mattt'
p3097
S'ma'
p3098
sS'dost'
p3099
S'xoswa'
p3100
sS'adp'
p3101
g1888
sS'jara'
p3102
S'jarA'
p3103
sS'weh'
p3104
S'vaha'
p3105
sS'dhund'
p3106
S'DUMDa'
p3107
sS'reha'
p3108
S'rahA'
p3109
sS'daadi'
p3110
S'xAnAxi'
p3111
sS'bandariya'
p3112
S'banxariyA'
p3113
sS'pyaari'
p3114
S'pyArI'
p3115
sS'desh'
p3116
S'xeSa'
p3117
sS'keval'
p3118
S'kevala'
p3119
sS'likh'
p3120
S'liKa'
p3121
sS'baare'
p3122
S'bAre'
p3123
sS'waheguru'
p3124
S'vAheguru'
p3125
sS'roti'
p3126
S'rotI'
p3127
sS'pyar'
p3128
S'pyAra'
p3129
sS'kyun'
p3130
S'kyoM'
p3131
sS'kdo'
p3132
S'kaxo'
p3133
sS'waqt'
p3134
S'vakZwa'
p3135
sS'congressi'
p3136
S'kAMgresI'
p3137
sS'hain'
p3138
S'hAita'
p3139
sS'vse'
p3140
S'vaMxe'
p3141
sS'husn'
p3142
S'hasana'
p3143
sS'varna'
p3144
S'varanA'
p3145
sS'enke'
p3146
S'enake'
p3147
sS'soiyo'
p3148
S'saiGo'
p3149
sS'yaad'
p3150
S'yArda'
p3151
sS'puchoge'
p3152
S'paDZoge'
p3153
sS'aapko'
p3154
S'Apako'
p3155
sS'ese'
p3156
S'Ese'
p3157
sS'girne'
p3158
S'girane'
p3159
sS'lagwata'
p3160
S'laMgadZAwA'
p3161
sS'tmh'
p3162
S'waw'
p3163
sS'aapke'
p3164
S'Aapake'
p3165
sS'aapka'
p3166
S'ApakA'
p3167
sS'mante'
p3168
S'mAnawe'
p3169
sS'uski'
p3170
S'usakI'
p3171
sS'chaddi'
p3172
S'caddI'
p3173
sS'gayrahi'
p3174
S'gumarAhI'
p3175
sS'pilura'
p3176
S'piMjarA'
p3177
sS'rakhti'
p3178
S'raKawI'
p3179
sS'pakad'
p3180
S'pakadZa'
p3181
sS'pike'
p3182
S'pIke'
p3183
sS'sakhte'
p3184
S'saKwI'
p3185
sS'izzat'
p3186
S'ijZjZawa'
p3187
sS'ander'
p3188
S'eNdera'
p3189
sS'kro'
p3190
S'karo'
p3191
sS'kra'
p3192
S'kara'
p3193
sS'kre'
p3194
S'kare'
p3195
sS'sunkr'
p3196
S'sunakara'
p3197
sS'uske'
p3198
S'usake'
p3199
sS'meri'
p3200
S'merI'
p3201
sS'bchane'
p3202
S'bacAne'
p3203
sS'mera'
p3204
S'merA'
p3205
sS'mere'
p3206
S'mere'
p3207
sS'vai'
p3208
S'vAI'
p3209
sS'rhti'
p3210
S'rahawI'
p3211
sS'maze'
p3212
S'majZe'
p3213
sS'yrr'
p3214
S'yara'
p3215
sS'thoko'
p3216
S'Woka'
p3217
sS'maza'
p3218
S'majZA'
p3219
sS'hatao'
p3220
S'hatAo'
p3221
sS'hr'
p3222
S'hara'
p3223
sS'bus'
p3224
S'basa'
p3225
sS'hq'
p3226
S'hakZa'
p3227
sS'hu'
p3228
S'hE'
p3229
sS'hi'
p3230
S'hE'
p3231
sS'hn'
p3232
S'hana'
p3233
sS'ho'
p3234
S'ho'
p3235
sS'schta'
p3236
S'saMkarawA'
p3237
sS'ha'
p3238
S'hE'
p3239
sS'he'
p3240
S'hE'
p3241
sS'apna'
p3242
S'apanA'
p3243
sS'majboor'
p3244
S'majabUra'
p3245
sS'karta'
p3246
S'karawA'
p3247
sS'apne'
p3248
S'apane'
p3249
sS'karte'
p3250
S'karawe'
p3251
sS'apni'
p3252
S'apanI'
p3253
sS'karti'
p3254
S'karawI'
p3255
sS'dhona'
p3256
S'XonA'
p3257
sS'saala'
p3258
S'sAyalA'
p3259
sS'ldkiya'
p3260
S'ladZakiyAM'
p3261
sS'saale'
p3262
S'sAle'
p3263
sS'ldkiyo'
p3264
S'ladZakiyoM'
p3265
sS'saalo'
p3266
S'sAlo'
p3267
sS'mushkil'
p3268
S'muSkila'
p3269
sS'subah'
p3270
S'subaha'
p3271
sS'arre'
p3272
S'are'
p3273
sS'banai'
p3274
S'banAI'
p3275
sS'sharif'
p3276
S'SarIPa'
p3277
sS'agla'
p3278
S'agalA'
p3279
sS'janta'
p3280
S'janawA'
p3281
sS'cheezo'
p3282
S'cIjZo'
p3283
sS'lagega'
p3284
S'lagegA'
p3285
sS'dyaan'
p3286
S'xaiyA'
p3287
sS'gidgidaayi'
p3288
S'gidgidaayi'
p3289
sS'pilao'
p3290
S'pilAo'
p3291
sS'bechara'
p3292
S'becArA'
p3293
sS'bechari'
p3294
S'becArI'
p3295
s.