(dp0
S'salwaar'
p1
(S'salavAra'
p2
V\u0938\u0932\u0935\u093e\u0930
p3
tp4
sS'hath'
p5
(S'hAWa'
p6
V\u0939\u093e\u0925
p7
tp8
sS'aashiq'
p9
(S'ASikZa'
p10
V\u0906\u0936\u093f\u0915\u093c
p11
tp12
sS'pasand'
p13
(S'pasaMxa'
p14
V\u092a\u0938\u0902\u0926
p15
tp16
sS'shuru'
p17
(S'SurU'
p18
V\u0936\u0941\u0930\u0942
p19
tp20
sS'khule'
p21
(S'Kule'
p22
V\u0916\u0941\u0932\u0947
p23
tp24
sS'aur'
p25
(S'AUrYa'
p26
V\u0906\u090a\u0931
p27
tp28
sS'matlab'
p29
(S'mawalaba'
p30
V\u092e\u0924\u0932\u092c
p31
tp32
sS'wjh'
p33
(S'vajaha'
p34
V\u0935\u091c\u0939
p35
tp36
sS'jayenge'
p37
(S'jAyeMge'
p38
V\u091c\u093e\u092f\u0947\u0902\u0917\u0947
p39
tp40
sS'aate'
p41
(S'Apte'
p42
V\u0906\u092a\u094d\u091f\u0947
p43
tp44
sS'bnaya'
p45
(S'banAyA'
p46
V\u092c\u0928\u093e\u092f\u093e
p47
tp48
sS'dkhi'
p49
(S'xaMdI'
p50
V\u0926\u0902\u0921\u0940
p51
tp52
sS'saare'
p53
(S'sAre'
p54
V\u0938\u093e\u0930\u0947
p55
tp56
sS'dkho'
p57
(S'raKo'
p58
V\u0930\u0916\u094b
p59
tp60
sS'badlna'
p61
(S'baxalanA'
p62
V\u092c\u0926\u0932\u0928\u093e
p63
tp64
sS'utni'
p65
(S'uwanI'
p66
V\u0909\u0924\u0928\u0940
p67
tp68
sS'humpe'
p69
(S'hamape'
p70
V\u0939\u092e\u092a\u0947
p71
tp72
sS'durghatna'
p73
(S'xurGatanA'
p74
V\u0926\u0941\u0930\u094d\u0918\u091f\u0928\u093e
p75
tp76
sS'chalti'
p77
(S'calawI'
p78
V\u091a\u0932\u0924\u0940
p79
tp80
sS'kutiya'
p81
(S'kutiyA'
p82
V\u0915\u0941\u091f\u093f\u092f\u093e
p83
tp84
sS'hora'
p85
(S'horA'
p86
V\u0939\u094b\u0930\u093e
p87
tp88
sS'galat'
p89
(S'galawa'
p90
V\u0917\u0932\u0924
p91
tp92
sS'payega'
p93
(S'pAyegA'
p94
V\u092a\u093e\u092f\u0947\u0917\u093e
p95
tp96
sS'chep'
p97
(S'cipa'
p98
V\u091a\u093f\u092a
p99
tp100
sS'tmhe'
p101
(S'wAmhaNe'
p102
V\u0924\u093e\u092e\u094d\u0939\u0923\u0947
p103
tp104
sS'naih'
p105
(S'na'
p106
V\u0928
p107
tp108
sS'warna'
p109
(S'varanA'
p110
V\u0935\u0930\u0928\u093e
p111
tp112
sS'bhugat'
p113
(S'Bugawa'
p114
V\u092d\u0941\u0917\u0924
p115
tp116
sS'minto'
p117
(S'minatoM'
p118
V\u092e\u093f\u0928\u091f\u094b\u0902
p119
tp120
sS'mahngai'
p121
(S'mahaMgAI'
p122
V\u092e\u0939\u0902\u0917\u093e\u0908
p123
tp124
sS'bharat'
p125
(S'\xe2\x80\x98rAwa'
p126
V\u2018\u0930\u093e\u0924
p127
tp128
sS'niche'
p129
(S'nIce'
p130
V\u0928\u0940\u091a\u0947
p131
tp132
sS'jaaye'
p133
(S'jAye'
p134
V\u091c\u093e\u092f\u0947
p135
tp136
sS'hera'
p137
(S'heara'
p138
V\u0939\u0947\u0905\u0930
p139
tp140
sS'mei'
p141
(S'meM'
p142
V\u092e\u0947\u0902
p143
tp144
sS'meh'
p145
(S'meha'
p146
V\u092e\u0947\u0939
p147
tp148
sS'pata'
p149
(S'pAwA'
p150
V\u092a\u093e\u0924\u093e
p151
tp152
sS'bech'
p153
(S'beca'
p154
V\u092c\u0947\u091a
p155
tp156
sS'pati'
p157
(S'pawi'
p158
V\u092a\u0924\u093f
p159
tp160
sS'path'
p161
(S'pATa'
p162
V\u092a\u093e\u0920
p163
tp164
sS'loot'
p165
(S'lUta'
p166
V\u0932\u0942\u091f
p167
tp168
sS'k'
p169
(S'ke'
p170
V\u0915\u0947
p171
tp172
sS'bhut'
p173
(S'bahuwa'
p174
V\u092c\u0939\u0941\u0924
p175
tp176
sS'bhul'
p177
(S'bahula'
p178
V\u092c\u0939\u0941\u0932
p179
tp180
sS'sadiyon'
p181
(S'saxiyoM'
p182
V\u0938\u0926\u093f\u092f\u094b\u0902
p183
tp184
sS'uspe'
p185
(S'usape'
p186
V\u0909\u0938\u092a\u0947
p187
tp188
sS'haddiyo'
p189
(S'haddiyoM'
p190
V\u0939\u0921\u094d\u0921\u093f\u092f\u094b\u0902
p191
tp192
sS'rahti'
p193
(S'rahawI'
p194
V\u0930\u0939\u0924\u0940
p195
tp196
sS'ludakh'
p197
(S'laxAKa'
p198
V\u0932\u0926\u093e\u0916
p199
tp200
sS'rahta'
p201
(S'rahawA'
p202
V\u0930\u0939\u0924\u093e
p203
tp204
sS'dne'
p205
(S'xene'
p206
V\u0926\u0947\u0928\u0947
p207
tp208
sS'deke'
p209
(S'xeKe'
p210
V\u0926\u0947\u0916\u0947
p211
tp212
sS'krwana'
p213
(S'karavAnA'
p214
V\u0915\u0930\u0935\u093e\u0928\u093e
p215
tp216
sS'nikammo'
p217
(S'nikammo'
p218
V\u0928\u093f\u0915\u092e\u094d\u092e\u094b
p219
tp220
sS'ugal'
p221
(S'ugala'
p222
V\u0909\u0917\u0932
p223
tp224
sS'apsabd'
p225
(S'apsa'
p226
V\u0905\u092a\u094d\u0938
p227
tp228
sS'bhlana'
p229
(S'BaMjAnA'
p230
V\u092d\u0902\u091c\u093e\u0928\u093e
p231
tp232
sS'hasaye'
p233
(S'hAMsaya'
p234
V\u0939\u093e\u0902\u0938\u092f
p235
tp236
sS'nki'
p237
(S'nakI'
p238
V\u0928\u0915\u0940
p239
tp240
sS'milkar'
p241
(S'milakara'
p242
V\u092e\u093f\u0932\u0915\u0930
p243
tp244
sS'lunga'
p245
(S'lUMgA'
p246
V\u0932\u0942\u0902\u0917\u093e
p247
tp248
sS'lungi'
p249
(S'lUMgI'
p250
V\u0932\u0942\u0902\u0917\u0940
p251
tp252
sS'me'
p253
(S'meM'
p254
V\u092e\u0947\u0902
p255
tp256
sS'ma'
p257
(S'mEM'
p258
V\u092e\u0948\u0902
p259
tp260
sS'dekh'
p261
(S'xeKa'
p262
V\u0926\u0947\u0916
p263
tp264
sS'mt'
p265
(S'mawa'
p266
V\u092e\u0924
p267
tp268
sS'btaega'
p269
(S'bawAegA'
p270
V\u092c\u0924\u093e\u090f\u0917\u093e
p271
tp272
sS'dimag'
p273
(S'ximAga'
p274
V\u0926\u093f\u092e\u093e\u0917
p275
tp276
sS'dimak'
p277
(S'ximAka'
p278
V\u0926\u093f\u092e\u093e\u0915
p279
tp280
sS'aukat'
p281
(S'avakAwa'
p282
V\u0905\u0935\u0915\u093e\u0924
p283
tp284
sS'denge'
p285
(S'xeMge'
p286
V\u0926\u0947\u0902\u0917\u0947
p287
tp288
sS'bhoke'
p289
(S'BaMde'
p290
V\u092d\u0902\u0921\u0947
p291
tp292
sS'harkat'
p293
(S'haMka'
p294
V\u0939\u0902\u0915
p295
tp296
sS'chandd'
p297
(S'cAMxa'
p298
V\u091a\u093e\u0902\u0926
p299
tp300
sS'aaaj'
p301
(S'A'
p302
V\u0906
p303
tp304
sS'khelein'
p305
(S'KelIM'
p306
V\u0916\u0947\u0932\u0940\u0902
p307
tp308
sS'kharche'
p309
(S'Karce'
p310
V\u0916\u0930\u094d\u091a\u0947
p311
tp312
sS'duniya'
p313
(S'xuniyA'
p314
V\u0926\u0941\u0928\u093f\u092f\u093e
p315
tp316
sS'pdunga'
p317
(S'paDZUMgA'
p318
V\u092a\u0922\u093c\u0942\u0902\u0917\u093e
p319
tp320
sS'guzra'
p321
(S'gujarA'
p322
V\u0917\u0941\u091c\u0930\u093e
p323
tp324
sS'imaan'
p325
(S'imArAna'
p326
V\u0907\u092e\u093e\u0930\u093e\u0928
p327
tp328
sS'kharid'
p329
(S'KZarIxa'
p330
V\u0916\u093c\u0930\u0940\u0926
p331
tp332
sS'sath'
p333
(S'sAWa'
p334
V\u0938\u093e\u0925
p335
tp336
sS'milega'
p337
(S'milegA'
p338
V\u092e\u093f\u0932\u0947\u0917\u093e
p339
tp340
sS'samajhna'
p341
(S'samaJanA'
p342
V\u0938\u092e\u091d\u0928\u093e
p343
tp344
sS'milegi'
p345
(S'milegI'
p346
V\u092e\u093f\u0932\u0947\u0917\u0940
p347
tp348
sS'lag'
p349
(S'laga'
p350
V\u0932\u0917
p351
tp352
sS'smjh'
p353
(S'samaJa'
p354
V\u0938\u092e\u091d
p355
tp356
sS'baaji'
p357
(S'bAjI'
p358
V\u092c\u093e\u091c\u0940
p359
tp360
sS'bahot'
p361
(S'bahowa'
p362
V\u092c\u0939\u094b\u0924
p363
tp364
sS'lat'
p365
(S'lawa'
p366
V\u0932\u0924
p367
tp368
sS'sabse'
p369
(S'sabase'
p370
V\u0938\u092c\u0938\u0947
p371
tp372
sS'vehle'
p373
(S'vaMxe'
p374
V\u0935\u0902\u0926\u0947
p375
tp376
sS'thapd'
p377
(S'Warda'
p378
V\u0925\u0930\u094d\u0921
p379
tp380
sS'muujhe'
p381
(S'mazJale'
p382
V\u092e\u0901\u091d\u0932\u0947
p383
tp384
sS'tumhra'
p385
(S'wUmharA'
p386
V\u0924\u0942\u092e\u094d\u0939\u0930\u093e
p387
tp388
sS'sanchar'
p389
(S'saMcAra'
p390
V\u0938\u0902\u091a\u093e\u0930
p391
tp392
sS'tumhre'
p393
(S'wumhare'
p394
V\u0924\u0941\u092e\u094d\u0939\u0930\u0947
p395
tp396
sS'karwai'
p397
(S'kArravAI'
p398
V\u0915\u093e\u0930\u094d\u0930\u0935\u093e\u0908
p399
tp400
sS'jhagda'
p401
(S'JagadZA'
p402
V\u091d\u0917\u0921\u093c\u093e
p403
tp404
sS'bhookh'
p405
(S'BUKa'
p406
V\u092d\u0942\u0916
p407
tp408
sS'samasya'
p409
(S'samasyA'
p410
V\u0938\u092e\u0938\u094d\u092f\u093e
p411
tp412
sS'nahin'
p413
(S'nahIM'
p414
V\u0928\u0939\u0940\u0902
p415
tp416
sS'fir'
p417
(S'Pira'
p418
V\u092b\u093f\u0930
p419
tp420
sS'satwaenge'
p421
(S'samaJAeMge'
p422
V\u0938\u092e\u091d\u093e\u090f\u0902\u0917\u0947
p423
tp424
sS'band'
p425
(S'baMxa'
p426
V\u092c\u0902\u0926
p427
tp428
sS'hmesa'
p429
(S'hameSA'
p430
V\u0939\u092e\u0947\u0936\u093e
p431
tp432
sS'bana'
p433
(S'banA'
p434
V\u092c\u0928\u093e
p435
tp436
sS'sayad'
p437
(S'sEyaxa'
p438
V\u0938\u0948\u092f\u0926
p439
tp440
sS'bani'
p441
(S'banI'
p442
V\u092c\u0928\u0940
p443
tp444
sS'banti'
p445
(S'BAMwi'
p446
V\u092d\u093e\u0902\u0924\u093f
p447
tp448
sS'bhaee'
p449
(S'bahAe'
p450
V\u092c\u0939\u093e\u090f
p451
tp452
sS'l'
p453
(S'la'
p454
V\u0932
p455
tp456
sS'mrne'
p457
(S'marane'
p458
V\u092e\u0930\u0928\u0947
p459
tp460
sS'bhot'
p461
(S'bahuwa'
p462
V\u092c\u0939\u0941\u0924
p463
tp464
sS'sasti'
p465
(S'saswI'
p466
V\u0938\u0938\u094d\u0924\u0940
p467
tp468
sS'hmse'
p469
(S'hamase'
p470
V\u0939\u092e\u0938\u0947
p471
tp472
sS'diya'
p473
(S'xiyA'
p474
V\u0926\u093f\u092f\u093e
p475
tp476
sS'diyo'
p477
(S'xiyo'
p478
V\u0926\u093f\u092f\u094b
p479
tp480
sS'chutiye'
p481
(S'cutiyA'
p482
V\u091a\u0941\u091f\u093f\u092f\u093e
p483
tp484
sS'haathi'
p485
(S'hAWI'
p486
V\u0939\u093e\u0925\u0940
p487
tp488
sS'chutiya'
p489
(S'cutiyA'
p490
V\u091a\u0941\u091f\u093f\u092f\u093e
p491
tp492
sS'logg'
p493
(S'logOYga'
p494
V\u0932\u094b\u0917\u0949\u0917
p495
tp496
sS'degi'
p497
(S'xegI'
p498
V\u0926\u0947\u0917\u0940
p499
tp500
sS'logo'
p501
(S'logoM'
p502
V\u0932\u094b\u0917\u094b\u0902
p503
tp504
sS'tatti'
p505
(S'tattI'
p506
V\u091f\u091f\u094d\u091f\u0940
p507
tp508
sS'logh'
p509
(S'loga'
p510
V\u0932\u094b\u0917
p511
tp512
sS'logi'
p513
(S'loBI'
p514
V\u0932\u094b\u092d\u0940
p515
tp516
sS'dhokebaj'
p517
(S'XoKebAja'
p518
V\u0927\u094b\u0916\u0947\u092c\u093e\u091c
p519
tp520
sS'bnana'
p521
(S'banAnA'
p522
V\u092c\u0928\u093e\u0928\u093e
p523
tp524
sS're'
p525
(S're'
p526
V\u0930\u0947
p527
tp528
sS'jald'
p529
(S'jalxa'
p530
V\u091c\u0932\u094d\u0926
p531
tp532
sS'ra'
p533
(S'rAya'
p534
V\u0930\u093e\u092f
p535
tp536
sS'ro'
p537
(S'ro'
p538
V\u0930\u094b
p539
tp540
sS'rh'
p541
(S'raha'
p542
V\u0930\u0939
p543
tp544
sS'ri'
p545
(S'rI'
p546
V\u0930\u0940
p547
tp548
sS'atyachaar'
p549
(S'aKawyAra'
p550
V\u0905\u0916\u0924\u094d\u092f\u093e\u0930
p551
tp552
sS'ate'
p553
(S'Awe'
p554
V\u0906\u0924\u0947
p555
tp556
sS'ata'
p557
(S'AwA'
p558
V\u0906\u0924\u093e
p559
tp560
sS'padosi'
p561
(S'padZosI'
p562
V\u092a\u0921\u093c\u094b\u0938\u0940
p563
tp564
sS'dhokhe'
p565
(S'XoKe'
p566
V\u0927\u094b\u0916\u0947
p567
tp568
sS'kohinoor'
p569
(S'kohinUra'
p570
V\u0915\u094b\u0939\u093f\u0928\u0942\u0930
p571
tp572
sS'dalde'
p573
(S'dAladA'
p574
V\u0921\u093e\u0932\u0921\u093e
p575
tp576
sS'isi'
p577
(S'isI'
p578
V\u0907\u0938\u0940
p579
tp580
sS'tadad'
p581
(S'wAxAxa'
p582
V\u0924\u093e\u0926\u093e\u0926
p583
tp584
sS'baten'
p585
(S'bAweM'
p586
V\u092c\u093e\u0924\u0947\u0902
p587
tp588
sS'aadaten'
p589
(S'AxaweM'
p590
V\u0906\u0926\u0924\u0947\u0902
p591
tp592
sS'ise'
p593
(S'Ese'
p594
V\u0910\u0938\u0947
p595
tp596
sS'nhe'
p597
(S'nahI'
p598
V\u0928\u0939\u0940
p599
tp600
sS'rang'
p601
(S'raMga'
p602
V\u0930\u0902\u0917
p603
tp604
sS'chhatri'
p605
(S'CawarI'
p606
V\u091b\u0924\u0930\u0940
p607
tp608
sS'puch'
p609
(S'pUCa'
p610
V\u092a\u0942\u091b
p611
tp612
sS'nhi'
p613
(S'nahIM'
p614
V\u0928\u0939\u0940\u0902
p615
tp616
sS'zarurat'
p617
(S'jZarurawa'
p618
V\u091c\u093c\u0930\u0941\u0930\u0924
p619
tp620
sS'bohot'
p621
(S'bohota'
p622
V\u092c\u094b\u0939\u094b\u091f
p623
tp624
sS'hoon'
p625
(S'hEM'
p626
V\u0939\u0948\u0902
p627
tp628
sS'kia'
p629
(S'kiyA'
p630
V\u0915\u093f\u092f\u093e
p631
tp632
sS'jaiyo'
p633
(S'jAwiyo'
p634
V\u091c\u093e\u0924\u093f\u092f\u094b
p635
tp636
sS'accha'
p637
(S'acCA'
p638
V\u0905\u091a\u094d\u091b\u093e
p639
tp640
sS'lega'
p641
(S'lagA'
p642
V\u0932\u0917\u093e
p643
tp644
sS'rona'
p645
(S'ronA'
p646
V\u0930\u094b\u0928\u093e
p647
tp648
sS'doge'
p649
(S'xoge'
p650
V\u0926\u094b\u0917\u0947
p651
tp652
sS'jaati'
p653
(S'jAwI'
p654
V\u091c\u093e\u0924\u0940
p655
tp656
sS'tou'
p657
(S'wo'
p658
V\u0924\u094b
p659
tp660
sS'tujhe'
p661
(S'wuJe'
p662
V\u0924\u0941\u091d\u0947
p663
tp664
sS'toh'
p665
(S'toha'
p666
V\u091f\u094b\u0939
p667
tp668
sS'too'
p669
(S'wo'
p670
V\u0924\u094b
p671
tp672
sS'unhone'
p673
(S'unhoMne'
p674
V\u0909\u0928\u094d\u0939\u094b\u0902\u0928\u0947
p675
tp676
sS'gye'
p677
(S'gaye'
p678
V\u0917\u092f\u0947
p679
tp680
sS'ga__mrnae'
p681
(S'ga__mrnae'
p682
V\u0917__\u092e\u094d\u0930\u094d\u0928\u090f
p683
tp684
sS'gya'
p685
(S'gayA'
p686
V\u0917\u092f\u093e
p687
tp688
sS'tooo'
p689
(S'wa'
p690
V\u0924
p691
tp692
sS'gyi'
p693
(S'gayI'
p694
V\u0917\u092f\u0940
p695
tp696
sS'zindegi'
p697
(S'jZiMxagI'
p698
V\u091c\u093c\u093f\u0902\u0926\u0917\u0940
p699
tp700
sS'nahi'
p701
(S'nahI'
p702
V\u0928\u0939\u0940
p703
tp704
sS'nahe'
p705
(S'nahI'
p706
V\u0928\u0939\u0940
p707
tp708
sS'kardo'
p709
(S'kArdo'
p710
V\u0915\u093e\u0930\u094d\u0921\u094b
p711
tp712
sS'tarfa'
p713
(S'waraPa'
p714
V\u0924\u0930\u092b
p715
tp716
sS'shayad'
p717
(S'SAyaxa'
p718
V\u0936\u093e\u092f\u0926
p719
tp720
sS'haye'
p721
(S'hAya'
p722
V\u0939\u093e\u092f
p723
tp724
sS'khelne'
p725
(S'Kelane'
p726
V\u0916\u0947\u0932\u0928\u0947
p727
tp728
sS'jaldi'
p729
(S'jalxI'
p730
V\u091c\u0932\u094d\u0926\u0940
p731
tp732
sS'rehna'
p733
(S'rahanA'
p734
V\u0930\u0939\u0928\u093e
p735
tp736
sS'rehne'
p737
(S'rahane'
p738
V\u0930\u0939\u0928\u0947
p739
tp740
sS'dikhaega'
p741
(S'xiKAegA'
p742
V\u0926\u093f\u0916\u093e\u090f\u0917\u093e
p743
tp744
sS'bheja'
p745
(S'BejA'
p746
V\u092d\u0947\u091c\u093e
p747
tp748
sS'puchti'
p749
(S'pUCawI'
p750
V\u092a\u0942\u091b\u0924\u0940
p751
tp752
sS'banaya'
p753
(S'banAyA'
p754
V\u092c\u0928\u093e\u092f\u093e
p755
tp756
sS'milta'
p757
(S'milawA'
p758
V\u092e\u093f\u0932\u0924\u093e
p759
tp760
sS'bss'
p761
(S'basasa'
p762
V\u092c\u0938\u0938
p763
tp764
sS'unhe'
p765
(S'unheM'
p766
V\u0909\u0928\u094d\u0939\u0947\u0902
p767
tp768
sS'khoj'
p769
(S'Koja'
p770
V\u0916\u094b\u091c
p771
tp772
sS'khol'
p773
(S'Kola'
p774
V\u0916\u094b\u0932
p775
tp776
sS'maaje'
p777
(S'mazja'
p778
V\u092e\u0901\u091c
p779
tp780
sS'shyd'
p781
(S'Sabxa'
p782
V\u0936\u092c\u094d\u0926
p783
tp784
sS'sub'
p785
(S'saba'
p786
V\u0938\u092c
p787
tp788
sS'galti'
p789
(S'galawI'
p790
V\u0917\u0932\u0924\u0940
p791
tp792
sS'kiye'
p793
(S'kiye'
p794
V\u0915\u093f\u092f\u0947
p795
tp796
sS'huye'
p797
(S'huye'
p798
V\u0939\u0941\u092f\u0947
p799
tp800
sS'kiya'
p801
(S'kiyA'
p802
V\u0915\u093f\u092f\u093e
p803
tp804
sS'paega'
p805
(S'pAegA'
p806
V\u092a\u093e\u090f\u0917\u093e
p807
tp808
sS'm'
p809
(S'ma'
p810
V\u092e
p811
tp812
sS'kaale'
p813
(S'kAPale'
p814
V\u0915\u093e\u092b\u0932\u0947
p815
tp816
sS'ullu'
p817
(S'ullU'
p818
V\u0909\u0932\u094d\u0932\u0942
p819
tp820
sS'abi'
p821
(S'aBI'
p822
V\u0905\u092d\u0940
p823
tp824
sS'niklte'
p825
(S'nikalawe'
p826
V\u0928\u093f\u0915\u0932\u0924\u0947
p827
tp828
sS'aashiqui'
p829
(S'ASika'
p830
V\u0906\u0936\u093f\u0915
p831
tp832
sS'haiiiii'
p833
(S'ha'
p834
V\u0939
p835
tp836
sS'yeh'
p837
(S'yaha'
p838
V\u092f\u0939
p839
tp840
sS'ankho'
p841
(S'AMKoM'
p842
V\u0906\u0902\u0916\u094b\u0902
p843
tp844
sS'pka'
p845
(S'pakA'
p846
V\u092a\u0915\u093e
p847
tp848
sS'guzar'
p849
(S'gujAra'
p850
V\u0917\u0941\u091c\u093e\u0930
p851
tp852
sS'd0'
p853
(S'da'
p854
V\u0921
p855
tp856
sS'neend'
p857
(S'nIMxa'
p858
V\u0928\u0940\u0902\u0926
p859
tp860
sS'niwase'
p861
(S'nivAsa'
p862
V\u0928\u093f\u0935\u093e\u0938
p863
tp864
sS'waha'
p865
(S'vAhA'
p866
V\u0935\u093e\u0939\u093e
p867
tp868
sS'mene'
p869
(S'mEMne'
p870
V\u092e\u0948\u0902\u0928\u0947
p871
tp872
sS'badao'
p873
(S'baDZAo'
p874
V\u092c\u0922\u093c\u093e\u0913
p875
tp876
sS'badal'
p877
(S'baxala'
p878
V\u092c\u0926\u0932
p879
tp880
sS'pucha'
p881
(S'pUCA'
p882
V\u092a\u0942\u091b\u093e
p883
tp884
sS'do'
p885
(S'xo'
p886
V\u0926\u094b
p887
tp888
sS'puche'
p889
(S'pUCe'
p890
V\u092a\u0942\u091b\u0947
p891
tp892
sS'di'
p893
(S'xI'
p894
V\u0926\u0940
p895
tp896
sS'de'
p897
(S'xe'
p898
V\u0926\u0947
p899
tp900
sS'raksha'
p901
(S'rakRA'
p902
V\u0930\u0915\u094d\u0937\u093e
p903
tp904
sS'geet'
p905
(S'gIwa'
p906
V\u0917\u0940\u0924
p907
tp908
sS'zrur'
p909
(S'jZarUra'
p910
V\u091c\u093c\u0930\u0942\u0930
p911
tp912
sS'aane'
p913
(S'Apane'
p914
V\u0906\u092a\u0928\u0947
p915
tp916
sS'dp'
p917
(S'Dapa'
p918
V\u0922\u092a
p919
tp920
sS'bat'
p921
(S'bAwa'
p922
V\u092c\u093e\u0924
p923
tp924
sS'bar'
p925
(S'bAra'
p926
V\u092c\u093e\u0930
p927
tp928
sS'bas'
p929
(S'basa'
p930
V\u092c\u0938
p931
tp932
sS'dusra'
p933
(S'xUsarA'
p934
V\u0926\u0942\u0938\u0930\u093e
p935
tp936
sS'dusre'
p937
(S'xUsare'
p938
V\u0926\u0942\u0938\u0930\u0947
p939
tp940
sS'bad'
p941
(S'bAxa'
p942
V\u092c\u093e\u0926
p943
tp944
sS'sikhaya'
p945
(S'siKAyA'
p946
V\u0938\u093f\u0916\u093e\u092f\u093e
p947
tp948
sS'krlo'
p949
(S'karjo'
p950
V\u0915\u0930\u094d\u091c\u094b
p951
tp952
sS'jaari'
p953
(S'jArI'
p954
V\u091c\u093e\u0930\u0940
p955
tp956
sS'phrr'
p957
(S'PaMtra'
p958
V\u092b\u0902\u091f\u094d\u0930
p959
tp960
sS'konsa'
p961
(S'kOnasA'
p962
V\u0915\u094c\u0928\u0938\u093e
p963
tp964
sS'krle'
p965
(S'karale'
p966
V\u0915\u0930\u0932\u0947
p967
tp968
sS'pada'
p969
(S'padZA'
p970
V\u092a\u0921\u093c\u093e
p971
tp972
sS'pade'
p973
(S'padZe'
p974
V\u092a\u0921\u093c\u0947
p975
tp976
sS'padi'
p977
(S'padZI'
p978
V\u092a\u0921\u093c\u0940
p979
tp980
sS'padh'
p981
(S'paDZa'
p982
V\u092a\u0922\u093c
p983
tp984
sS'bagal'
p985
(S'bagala'
p986
V\u092c\u0917\u0932
p987
tp988
sS'dobara'
p989
(S'xobArA'
p990
V\u0926\u094b\u092c\u093e\u0930\u093e
p991
tp992
sS'maharaja'
p993
(S'mahArAja'
p994
V\u092e\u0939\u093e\u0930\u093e\u091c
p995
tp996
sS'ghanta'
p997
(S'GaMtA'
p998
V\u0918\u0902\u091f\u093e
p999
tp1000
sS'pdhte'
p1001
(S'paDZawe'
p1002
V\u092a\u0922\u093c\u0924\u0947
p1003
tp1004
sS'jamaal'
p1005
(S'jamAla'
p1006
V\u091c\u092e\u093e\u0932
p1007
tp1008
sS'bhajanpura'
p1009
(S'BajanapurA'
p1010
V\u092d\u091c\u0928\u092a\u0941\u0930\u093e
p1011
tp1012
sS'jinda'
p1013
(S'jiMxA'
p1014
V\u091c\u093f\u0902\u0926\u093e
p1015
tp1016
sS'choda'
p1017
(S'CodZA'
p1018
V\u091b\u094b\u0921\u093c\u093e
p1019
tp1020
sS'bukhaar'
p1021
(S'buKAra'
p1022
V\u092c\u0941\u0916\u093e\u0930
p1023
tp1024
sS'wo'
p1025
(S'vo'
p1026
V\u0935\u094b
p1027
tp1028
sS'chodo'
p1029
(S'CodZo'
p1030
V\u091b\u094b\u0921\u093c\u094b
p1031
tp1032
sS'chodh'
p1033
(S'cOxaha'
p1034
V\u091a\u094c\u0926\u0939
p1035
tp1036
sS'kufr'
p1037
(S'kuPra'
p1038
V\u0915\u0941\u092b\u094d\u0930
p1039
tp1040
sS'chutkara'
p1041
(S'CutakArA'
p1042
V\u091b\u0941\u091f\u0915\u093e\u0930\u093e
p1043
tp1044
sS'ham'
p1045
(S'hama'
p1046
V\u0939\u092e
p1047
tp1048
sS'glti'
p1049
(S'galawI'
p1050
V\u0917\u0932\u0924\u0940
p1051
tp1052
sS'fareb'
p1053
(S'Pareba'
p1054
V\u092b\u0930\u0947\u092c
p1055
tp1056
sS'yaar'
p1057
(S'yAwra'
p1058
V\u092f\u093e\u0924\u094d\u0930
p1059
tp1060
sS'jaye'
p1061
(S'jAye'
p1062
V\u091c\u093e\u092f\u0947
p1063
tp1064
sS'karen'
p1065
(S'kareM'
p1066
V\u0915\u0930\u0947\u0902
p1067
tp1068
sS'kregi'
p1069
(S'karegI'
p1070
V\u0915\u0930\u0947\u0917\u0940
p1071
tp1072
sS'gatar'
p1073
(S'gatara'
p1074
V\u0917\u091f\u0930
p1075
tp1076
sS'krega'
p1077
(S'karegA'
p1078
V\u0915\u0930\u0947\u0917\u093e
p1079
tp1080
sS'fri'
p1081
(S'PrI'
p1082
V\u092b\u094d\u0930\u0940
p1083
tp1084
sS'beet'
p1085
(S'bIwa'
p1086
V\u092c\u0940\u0924
p1087
tp1088
sS'kroooooo'
p1089
(S'karUz'
p1090
V\u0915\u0930\u0942\u0901
p1091
tp1092
sS'tjhe'
p1093
(S'waise'
p1094
V\u0924\u0907\u0938\u0947
p1095
tp1096
sS'chun'
p1097
(S'cuna'
p1098
V\u091a\u0941\u0928
p1099
tp1100
sS'naya'
p1101
(S'nayA'
p1102
V\u0928\u092f\u093e
p1103
tp1104
sS'piste'
p1105
(S'piswe'
p1106
V\u092a\u093f\u0938\u094d\u0924\u0947
p1107
tp1108
sS'chup'
p1109
(S'cupa'
p1110
V\u091a\u0941\u092a
p1111
tp1112
sS'chaiya'
p1113
(S'cAhiyA'
p1114
V\u091a\u093e\u0939\u093f\u092f\u093e
p1115
tp1116
sS'har'
p1117
(S'hAra'
p1118
V\u0939\u093e\u0930
p1119
tp1120
sS'chaiye'
p1121
(S'cAhiye'
p1122
V\u091a\u093e\u0939\u093f\u092f\u0947
p1123
tp1124
sS'aurat'
p1125
(S'Orawa'
p1126
V\u0914\u0930\u0924
p1127
tp1128
sS'chaaappp'
p1129
(S'caMpaI'
p1130
V\u091a\u0902\u092a\u0908
p1131
tp1132
sS'gyaa'
p1133
(S'gayAnA'
p1134
V\u0917\u092f\u093e\u0928\u093e
p1135
tp1136
sS'n'
p1137
(S'na'
p1138
V\u0928
p1139
tp1140
sS'mohabbt'
p1141
(S'mohabbawa'
p1142
V\u092e\u094b\u0939\u092c\u094d\u092c\u0924
p1143
tp1144
sS'jhaanko'
p1145
(S'JAzko'
p1146
V\u091d\u093e\u0901\u0915\u094b
p1147
tp1148
sS'iz'
p1149
(S'ija'
p1150
V\u0907\u091c
p1151
tp1152
sS'jese'
p1153
(S'jese'
p1154
V\u091c\u0947\u0938\u0947
p1155
tp1156
sS'is'
p1157
(S'isa'
p1158
V\u0907\u0938
p1159
tp1160
sS'khati'
p1161
(S'KAwI'
p1162
V\u0916\u093e\u0924\u0940
p1163
tp1164
sS'paeega'
p1165
(S'paMKA'
p1166
V\u092a\u0902\u0916\u093e
p1167
tp1168
sS'in'
p1169
(S'ina'
p1170
V\u0907\u0928
p1171
tp1172
sS'udao'
p1173
(S'uKadZA'
p1174
V\u0909\u0916\u0921\u093c\u093e
p1175
tp1176
sS'hone'
p1177
(S'hone'
p1178
V\u0939\u094b\u0928\u0947
p1179
tp1180
sS'hona'
p1181
(S'honA'
p1182
V\u0939\u094b\u0928\u093e
p1183
tp1184
sS'tmhare'
p1185
(S'wmhare'
p1186
V\u0924\u094d\u092e\u094d\u0939\u0930\u0947
p1187
tp1188
sS'honi'
p1189
(S'honI'
p1190
V\u0939\u094b\u0928\u0940
p1191
tp1192
sS'nikl'
p1193
(S'nikala'
p1194
V\u0928\u093f\u0915\u0932
p1195
tp1196
sS'kahin'
p1197
(S'kahIM'
p1198
V\u0915\u0939\u0940\u0902
p1199
tp1200
sS'hony'
p1201
(S'honI'
p1202
V\u0939\u094b\u0928\u0940
p1203
tp1204
sS'kaash'
p1205
(S'kASa'
p1206
V\u0915\u093e\u0936
p1207
tp1208
sS'jama'
p1209
(S'jamA'
p1210
V\u091c\u092e\u093e
p1211
tp1212
sS'aapne'
p1213
(S'Apane'
p1214
V\u0906\u092a\u0928\u0947
p1215
tp1216
sS'andha'
p1217
(S'aMXA'
p1218
V\u0905\u0902\u0927\u093e
p1219
tp1220
sS'kis'
p1221
(S'kisa'
p1222
V\u0915\u093f\u0938
p1223
tp1224
sS'yakin'
p1225
(S'yakIna'
p1226
V\u092f\u0915\u0940\u0928
p1227
tp1228
sS'nie'
p1229
(S'naie'
p1230
V\u0928\u0907\u090f
p1231
tp1232
sS'chakkr'
p1233
(S'cakkara'
p1234
V\u091a\u0915\u094d\u0915\u0930
p1235
tp1236
sS'patane'
p1237
(S'patAne'
p1238
V\u092a\u091f\u093e\u0928\u0947
p1239
tp1240
sS'patani'
p1241
(S'pAwAnI'
p1242
V\u092a\u093e\u0924\u093e\u0928\u0940
p1243
tp1244
sS'tope'
p1245
(S'tOYpa'
p1246
V\u091f\u0949\u092a
p1247
tp1248
sS'moka'
p1249
(S'mOkA'
p1250
V\u092e\u094c\u0915\u093e
p1251
tp1252
sS'kie'
p1253
(S'kie'
p1254
V\u0915\u093f\u090f
p1255
tp1256
sS'jiyo'
p1257
(S'jiyo'
p1258
V\u091c\u093f\u092f\u094b
p1259
tp1260
sS'aisa'
p1261
(S'jEsA'
p1262
V\u091c\u0948\u0938\u093e
p1263
tp1264
sS'dadi'
p1265
(S'xAxI'
p1266
V\u0926\u093e\u0926\u0940
p1267
tp1268
sS'aise'
p1269
(S'aise'
p1270
V\u0905\u0907\u0938\u0947
p1271
tp1272
sS'aisi'
p1273
(S'AIsI'
p1274
V\u0906\u0908\u0938\u0940
p1275
tp1276
sS'kamine'
p1277
(S'kAmIne'
p1278
V\u0915\u093e\u092e\u0940\u0928\u0947
p1279
tp1280
sS'tho'
p1281
(S'To'
p1282
V\u0920\u094b
p1283
tp1284
sS'thk'
p1285
(S'Waka'
p1286
V\u0925\u0915
p1287
tp1288
sS'thi'
p1289
(S'WI'
p1290
V\u0925\u0940
p1291
tp1292
sS'the'
p1293
(S'We'
p1294
V\u0925\u0947
p1295
tp1296
sS'tha'
p1297
(S'WA'
p1298
V\u0925\u093e
p1299
tp1300
sS'padne'
p1301
(S'padZane'
p1302
V\u092a\u0921\u093c\u0928\u0947
p1303
tp1304
sS'kroo'
p1305
(S'karo'
p1306
V\u0915\u0930\u094b
p1307
tp1308
sS'honge'
p1309
(S'hoMge'
p1310
V\u0939\u094b\u0902\u0917\u0947
p1311
tp1312
sS'tujse'
p1313
(S'wuJase'
p1314
V\u0924\u0941\u091d\u0938\u0947
p1315
tp1316
sS'hai'
p1317
(S'hAI'
p1318
V\u0939\u093e\u0908
p1319
tp1320
sS'gadde'
p1321
(S'gadDe'
p1322
V\u0917\u0921\u094d\u0922\u0947
p1323
tp1324
sS'socha'
p1325
(S'socA'
p1326
V\u0938\u094b\u091a\u093e
p1327
tp1328
sS'han'
p1329
(S'hAM'
p1330
V\u0939\u093e\u0902
p1331
tp1332
sS'socho'
p1333
(S'soco'
p1334
V\u0938\u094b\u091a\u094b
p1335
tp1336
sS'had'
p1337
(S'haxa'
p1338
V\u0939\u0926
p1339
tp1340
sS'bato'
p1341
(S'bAwa'
p1342
V\u092c\u093e\u0924
p1343
tp1344
sS'bni'
p1345
(S'banI'
p1346
V\u092c\u0928\u0940
p1347
tp1348
sS'haq'
p1349
(S'hakZa'
p1350
V\u0939\u0915\u093c
p1351
tp1352
sS'bna'
p1353
(S'banA'
p1354
V\u092c\u0928\u093e
p1355
tp1356
sS'has'
p1357
(S'hAsa'
p1358
V\u0939\u093e\u0938
p1359
tp1360
sS'hat'
p1361
(S'hata'
p1362
V\u0939\u091f
p1363
tp1364
sS'bnd'
p1365
(S'baMxa'
p1366
V\u092c\u0902\u0926
p1367
tp1368
sS'bhagwan'
p1369
(S'BagavAna'
p1370
V\u092d\u0917\u0935\u093e\u0928
p1371
tp1372
sS'jaunga'
p1373
(S'jAUMgA'
p1374
V\u091c\u093e\u090a\u0902\u0917\u093e
p1375
tp1376
sS'chahe'
p1377
(S'cAhe'
p1378
V\u091a\u093e\u0939\u0947
p1379
tp1380
sS'khoon'
p1381
(S'KUna'
p1382
V\u0916\u0942\u0928
p1383
tp1384
sS'bandi'
p1385
(S'baMxI'
p1386
V\u092c\u0902\u0926\u0940
p1387
tp1388
sS'banda'
p1389
(S'bAMxA'
p1390
V\u092c\u093e\u0902\u0926\u093e
p1391
tp1392
sS'jaha'
p1393
(S'jahAM'
p1394
V\u091c\u0939\u093e\u0902
p1395
tp1396
sS'd'
p1397
(S'xa'
p1398
V\u0926
p1399
tp1400
sS'avatar'
p1401
(S'avawAra'
p1402
V\u0905\u0935\u0924\u093e\u0930
p1403
tp1404
sS'skta'
p1405
(S'sakawA'
p1406
V\u0938\u0915\u0924\u093e
p1407
tp1408
sS'ole'
p1409
(S'ole'
p1410
V\u0913\u0932\u0947
p1411
tp1412
sS'skte'
p1413
(S'sakawe'
p1414
V\u0938\u0915\u0924\u0947
p1415
tp1416
sS'mulla'
p1417
(S'mullA'
p1418
V\u092e\u0941\u0932\u094d\u0932\u093e
p1419
tp1420
sS'radha'
p1421
(S'rAXA'
p1422
V\u0930\u093e\u0927\u093e
p1423
tp1424
sS'sota'
p1425
(S'sowA'
p1426
V\u0938\u094b\u0924\u093e
p1427
tp1428
sS'pkka'
p1429
(S'pakkA'
p1430
V\u092a\u0915\u094d\u0915\u093e
p1431
tp1432
sS'aacha'
p1433
(S'BAcA'
p1434
V\u092d\u093e\u091a\u093e
p1435
tp1436
sS'rakhkhenge'
p1437
(S'raKeMge'
p1438
V\u0930\u0916\u0947\u0902\u0917\u0947
p1439
tp1440
sS'bole'
p1441
(S'bole'
p1442
V\u092c\u094b\u0932\u0947
p1443
tp1444
sS'bahu'
p1445
(S'bahU'
p1446
V\u092c\u0939\u0942
p1447
tp1448
sS'nazar'
p1449
(S'najZara'
p1450
V\u0928\u091c\u093c\u0930
p1451
tp1452
sS'saaab'
p1453
(S'sAba'
p1454
V\u0938\u093e\u092c
p1455
tp1456
sS'jyada'
p1457
(S'jyAxA'
p1458
V\u091c\u094d\u092f\u093e\u0926\u093e
p1459
tp1460
sS'sambhli'
p1461
(S'saMBalI'
p1462
V\u0938\u0902\u092d\u0932\u0940
p1463
tp1464
sS'bolo'
p1465
(S'bolo'
p1466
V\u092c\u094b\u0932\u094b
p1467
tp1468
sS'pher'
p1469
(S'Pera'
p1470
V\u092b\u0947\u0930
p1471
tp1472
sS'sambhodhit'
p1473
(S'sambaMXiwa'
p1474
V\u0938\u092e\u094d\u092c\u0902\u0927\u093f\u0924
p1475
tp1476
sS'ghumta'
p1477
(S'GUmawA'
p1478
V\u0918\u0942\u092e\u0924\u093e
p1479
tp1480
sS'chalta'
p1481
(S'calawA'
p1482
V\u091a\u0932\u0924\u093e
p1483
tp1484
sS'liye'
p1485
(S'liye'
p1486
V\u0932\u093f\u092f\u0947
p1487
tp1488
sS'zamaana'
p1489
(S'jZamAnA'
p1490
V\u091c\u093c\u092e\u093e\u0928\u093e
p1491
tp1492
sS'liya'
p1493
(S'liyA'
p1494
V\u0932\u093f\u092f\u093e
p1495
tp1496
sS'tabhe'
p1497
(S'waise'
p1498
V\u0924\u0907\u0938\u0947
p1499
tp1500
sS'laana'
p1501
(S'lAxanA'
p1502
V\u0932\u093e\u0926\u0928\u093e
p1503
tp1504
sS'tabhi'
p1505
(S'waMgI'
p1506
V\u0924\u0902\u0917\u0940
p1507
tp1508
sS'o'
p1509
(g1509
V\u0913
p1510
tp1511
sS'lagati'
p1512
(S'lagawI'
p1513
V\u0932\u0917\u0924\u0940
p1514
tp1515
sS'bhaga'
p1516
(S'BIAga'
p1517
V\u092d\u0940\u0906\u0917
p1518
tp1519
sS'chahta'
p1520
(S'cAhawA'
p1521
V\u091a\u093e\u0939\u0924\u093e
p1522
tp1523
sS'usse'
p1524
(S'use'
p1525
V\u0909\u0938\u0947
p1526
tp1527
sS'bata'
p1528
(S'bAwa'
p1529
V\u092c\u093e\u0924
p1530
tp1531
sS'jwnge'
p1532
(S'jaMga'
p1533
V\u091c\u0902\u0917
p1534
tp1535
sS'dukh'
p1536
(S'xuKa'
p1537
V\u0926\u0941\u0916
p1538
tp1539
sS'abey'
p1540
(S'abI'
p1541
V\u0905\u092c\u0940
p1542
tp1543
sS'mushkl'
p1544
(S'muSka'
p1545
V\u092e\u0941\u0936\u094d\u0915
p1546
tp1547
sS'bche'
p1548
(S'bace'
p1549
V\u092c\u091a\u0947
p1550
tp1551
sS'paya'
p1552
(S'pAyA'
p1553
V\u092a\u093e\u092f\u093e
p1554
tp1555
sS'beti'
p1556
(S'betI'
p1557
V\u092c\u0947\u091f\u0940
p1558
tp1559
sS'wai'
p1560
(S'vAI'
p1561
V\u0935\u093e\u0908
p1562
tp1563
sS'wah'
p1564
(S'vaha'
p1565
V\u0935\u0939
p1566
tp1567
sS'janu'
p1568
(S'jAnU'
p1569
V\u091c\u093e\u0928\u0942
p1570
tp1571
sS'lagu'
p1572
(S'lAgU'
p1573
V\u0932\u093e\u0917\u0942
p1574
tp1575
sS'halla'
p1576
(S'hallA'
p1577
V\u0939\u0932\u094d\u0932\u093e
p1578
tp1579
sS'zaruri'
p1580
(S'jZarUrI'
p1581
V\u091c\u093c\u0930\u0942\u0930\u0940
p1582
tp1583
sS'lagi'
p1584
(S'lagI'
p1585
V\u0932\u0917\u0940
p1586
tp1587
sS'harana'
p1588
(S'hErAna'
p1589
V\u0939\u0948\u0930\u093e\u0928
p1590
tp1591
sS'jane'
p1592
(S'jAne'
p1593
V\u091c\u093e\u0928\u0947
p1594
tp1595
sS'jana'
p1596
(S'jAnA'
p1597
V\u091c\u093e\u0928\u093e
p1598
tp1599
sS'laga'
p1600
(S'lagA'
p1601
V\u0932\u0917\u093e
p1602
tp1603
sS'paka'
p1604
(S'pAka'
p1605
V\u092a\u093e\u0915
p1606
tp1607
sS'maarne'
p1608
(S'mArane'
p1609
V\u092e\u093e\u0930\u0928\u0947
p1610
tp1611
sS'daalke'
p1612
(S'daMke'
p1613
V\u0921\u0902\u0915\u0947
p1614
tp1615
sS'piya'
p1616
(S'piyA'
p1617
V\u092a\u093f\u092f\u093e
p1618
tp1619
sS'bera'
p1620
(S'berA'
p1621
V\u092c\u0947\u0930\u093e
p1622
tp1623
sS'mitenge'
p1624
(S'miteMge'
p1625
V\u092e\u093f\u091f\u0947\u0902\u0917\u0947
p1626
tp1627
sS'laye'
p1628
(S'lAye'
p1629
V\u0932\u093e\u092f\u0947
p1630
tp1631
sS'bnayega'
p1632
(S'bawAyegA'
p1633
V\u092c\u0924\u093e\u092f\u0947\u0917\u093e
p1634
tp1635
sS'soja'
p1636
(S'sajA'
p1637
V\u0938\u091c\u093e
p1638
tp1639
sS'raha'
p1640
(S'rahA'
p1641
V\u0930\u0939\u093e
p1642
tp1643
sS'rahe'
p1644
(S'rahe'
p1645
V\u0930\u0939\u0947
p1646
tp1647
sS'rahi'
p1648
(S'rahI'
p1649
V\u0930\u0939\u0940
p1650
tp1651
sS'hame'
p1652
(S'hame'
p1653
V\u0939\u092e\u0947
p1654
tp1655
sS'khn'
p1656
(S'Kana'
p1657
V\u0916\u0928
p1658
tp1659
sS'kho'
p1660
(S'Ko'
p1661
V\u0916\u094b
p1662
tp1663
sS'kha'
p1664
(S'kahA'
p1665
V\u0915\u0939\u093e
p1666
tp1667
sS'khe'
p1668
(S'kahe'
p1669
V\u0915\u0939\u0947
p1670
tp1671
sS'nh'
p1672
(S'naha'
p1673
V\u0928\u0939
p1674
tp1675
sS'gyaan'
p1676
(S'gyAna'
p1677
V\u0917\u094d\u092f\u093e\u0928
p1678
tp1679
sS'banaunga'
p1680
(S'bawAUMgA'
p1681
V\u092c\u0924\u093e\u090a\u0902\u0917\u093e
p1682
tp1683
sS'dikha'
p1684
(S'xiKA'
p1685
V\u0926\u093f\u0916\u093e
p1686
tp1687
sS'na'
p1688
(S'na'
p1689
V\u0928
p1690
tp1691
sS'ne'
p1692
(S'ne'
p1693
V\u0928\u0947
p1694
tp1695
sS'nu'
p1696
(S'na'
p1697
V\u0928
p1698
tp1699
sS'royegi'
p1700
(S'rokegI'
p1701
V\u0930\u094b\u0915\u0947\u0917\u0940
p1702
tp1703
sS'vaha'
p1704
(S'vaha'
p1705
V\u0935\u0939
p1706
tp1707
sS'muslimo'
p1708
(S'muslimo'
p1709
V\u092e\u0941\u0938\u094d\u0932\u093f\u092e\u094b
p1710
tp1711
sS'khulna'
p1712
(S'KulanA'
p1713
V\u0916\u0941\u0932\u0928\u093e
p1714
tp1715
sS'ajkal'
p1716
(S'Ajakala'
p1717
V\u0906\u091c\u0915\u0932
p1718
tp1719
sS'tumhe'
p1720
(S'wumheM'
p1721
V\u0924\u0941\u092e\u094d\u0939\u0947\u0902
p1722
tp1723
sS'girwan'
p1724
(S'giravAM'
p1725
V\u0917\u093f\u0930\u0935\u093e\u0902
p1726
tp1727
sS'mjhe'
p1728
(S'maJe'
p1729
V\u092e\u091d\u0947
p1730
tp1731
sS'paaye'
p1732
(S'pAXye'
p1733
V\u092a\u093e\u0927\u094d\u092f\u0947
p1734
tp1735
sS'rok'
p1736
(S'roka'
p1737
V\u0930\u094b\u0915
p1738
tp1739
sS'sambhalta'
p1740
(S'saMBalawA'
p1741
V\u0938\u0902\u092d\u0932\u0924\u093e
p1742
tp1743
sS'roz'
p1744
(S'roja'
p1745
V\u0930\u094b\u091c
p1746
tp1747
sS'taleey'
p1748
(S'wElIya'
p1749
V\u0924\u0948\u0932\u0940\u092f
p1750
tp1751
sS'mila'
p1752
(S'milA'
p1753
V\u092e\u093f\u0932\u093e
p1754
tp1755
sS'mill'
p1756
(S'mila'
p1757
V\u092e\u093f\u0932
p1758
tp1759
sS'ose'
p1760
(S'osa'
p1761
V\u0913\u0938
p1762
tp1763
sS'mili'
p1764
(S'milI'
p1765
V\u092e\u093f\u0932\u0940
p1766
tp1767
sS'dhadke'
p1768
(S'Xakke'
p1769
V\u0927\u0915\u094d\u0915\u0947
p1770
tp1771
sS'tmhre'
p1772
(S'wmhare'
p1773
V\u0924\u094d\u092e\u094d\u0939\u0930\u0947
p1774
tp1775
sS'thanda'
p1776
(S'TaMdA'
p1777
V\u0920\u0902\u0921\u093e
p1778
tp1779
sS'smjhegi'
p1780
(S'samaJegI'
p1781
V\u0938\u092e\u091d\u0947\u0917\u0940
p1782
tp1783
sS'0'
p1784
(g1784
V0
p1785
tp1786
sS'vichaaar'
p1787
(S'vicAra'
p1788
V\u0935\u093f\u091a\u093e\u0930
p1789
tp1790
sS'hume'
p1791
(S'hame'
p1792
V\u0939\u092e\u0947
p1793
tp1794
sS'wahi'
p1795
(S'vahI'
p1796
V\u0935\u0939\u0940
p1797
tp1798
sS'pehente'
p1799
(S'pehenawe'
p1800
V\u092a\u0947\u0939\u0947\u0928\u0924\u0947
p1801
tp1802
sS'dil'
p1803
(S'xila'
p1804
V\u0926\u093f\u0932
p1805
tp1806
sS'din'
p1807
(S'xina'
p1808
V\u0926\u093f\u0928
p1809
tp1810
sS'die'
p1811
(S'xie'
p1812
V\u0926\u093f\u090f
p1813
tp1814
sS'maha'
p1815
(S'mAha'
p1816
V\u092e\u093e\u0939
p1817
tp1818
sS'dia'
p1819
(S'xiyA'
p1820
V\u0926\u093f\u092f\u093e
p1821
tp1822
sS'p'
p1823
(S'pa'
p1824
V\u092a
p1825
tp1826
sS'haath'
p1827
(S'hAWa'
p1828
V\u0939\u093e\u0925
p1829
tp1830
sS'diy'
p1831
(S'xie'
p1832
V\u0926\u093f\u090f
p1833
tp1834
sS'bola'
p1835
(S'bolA'
p1836
V\u092c\u094b\u0932\u093e
p1837
tp1838
sS'niklega'
p1839
(S'nikalegA'
p1840
V\u0928\u093f\u0915\u0932\u0947\u0917\u093e
p1841
tp1842
sS'hta'
p1843
(S'hatA'
p1844
V\u0939\u091f\u093e
p1845
tp1846
sS'hti'
p1847
(S'haTI'
p1848
V\u0939\u0920\u0940
p1849
tp1850
sS'baki'
p1851
(S'bAkI'
p1852
V\u092c\u093e\u0915\u0940
p1853
tp1854
sS'karenge'
p1855
(S'kareMge'
p1856
V\u0915\u0930\u0947\u0902\u0917\u0947
p1857
tp1858
sS'chotu'
p1859
(S'CotU'
p1860
V\u091b\u094b\u091f\u0942
p1861
tp1862
sS'sanskriti'
p1863
(S'saMskqwi'
p1864
V\u0938\u0902\u0938\u094d\u0915\u0943\u0924\u093f
p1865
tp1866
sS'chota'
p1867
(S'CotA'
p1868
V\u091b\u094b\u091f\u093e
p1869
tp1870
sS'bahut'
p1871
(S'bahuwa'
p1872
V\u092c\u0939\u0941\u0924
p1873
tp1874
sS'choti'
p1875
(S'CotI'
p1876
V\u091b\u094b\u091f\u0940
p1877
tp1878
sS'taash'
p1879
(S'wa'
p1880
V\u0924
p1881
tp1882
sS'bulane'
p1883
(S'bulAne'
p1884
V\u092c\u0941\u0932\u093e\u0928\u0947
p1885
tp1886
sS'krna'
p1887
(S'karanA'
p1888
V\u0915\u0930\u0928\u093e
p1889
tp1890
sS'krne'
p1891
(S'karane'
p1892
V\u0915\u0930\u0928\u0947
p1893
tp1894
sS'fayeda'
p1895
(S'PAyaxA'
p1896
V\u092b\u093e\u092f\u0926\u093e
p1897
tp1898
sS'krni'
p1899
(S'karanI'
p1900
V\u0915\u0930\u0928\u0940
p1901
tp1902
sS'kamo'
p1903
(S'kAmoM'
p1904
V\u0915\u093e\u092e\u094b\u0902
p1905
tp1906
sS'milenge'
p1907
(S'mileMge'
p1908
V\u092e\u093f\u0932\u0947\u0902\u0917\u0947
p1909
tp1910
sS'tumne'
p1911
(S'wumane'
p1912
V\u0924\u0941\u092e\u0928\u0947
p1913
tp1914
sS'nikal'
p1915
(S'nikAla'
p1916
V\u0928\u093f\u0915\u093e\u0932
p1917
tp1918
sS'insan'
p1919
(S'iMsAna'
p1920
V\u0907\u0902\u0938\u093e\u0928
p1921
tp1922
sS'liyo'
p1923
(S'liyo'
p1924
V\u0932\u093f\u092f\u094b
p1925
tp1926
sS'ishaq'
p1927
(S'ijAka'
p1928
V\u0907\u091c\u093e\u0915
p1929
tp1930
sS'bol'
p1931
(S'bola'
p1932
V\u092c\u094b\u0932
p1933
tp1934
sS'bkws'
p1935
(S'ba'
p1936
V\u092c
p1937
tp1938
sS'ayi'
p1939
(S'AyI'
p1940
V\u0906\u092f\u0940
p1941
tp1942
sS'aye'
p1943
(S'Aye'
p1944
V\u0906\u092f\u0947
p1945
tp1946
sS'aya'
p1947
(S'AyA'
p1948
V\u0906\u092f\u093e
p1949
tp1950
sS'lgta'
p1951
(S'lagawA'
p1952
V\u0932\u0917\u0924\u093e
p1953
tp1954
sS'dimaag'
p1955
(S'ximAgZa'
p1956
V\u0926\u093f\u092e\u093e\u0917\u093c
p1957
tp1958
sS'andr'
p1959
(S'aMxara'
p1960
V\u0905\u0902\u0926\u0930
p1961
tp1962
sS'india'
p1963
(S'iMdiyA'
p1964
V\u0907\u0902\u0921\u093f\u092f\u093e
p1965
tp1966
sS'aconjhi'
p1967
(S'AbAMJIra'
p1968
V\u0906\u092c\u093e\u0902\u091d\u0940\u0930
p1969
tp1970
sS'aaega'
p1971
(S'AegA'
p1972
V\u0906\u090f\u0917\u093e
p1973
tp1974
sS'malai'
p1975
(S'malAI'
p1976
V\u092e\u0932\u093e\u0908
p1977
tp1978
sS'kasam'
p1979
(S'kasama'
p1980
V\u0915\u0938\u092e
p1981
tp1982
sS'aayien'
p1983
(S'AM'
p1984
V\u0906\u0902
p1985
tp1986
sS'kese'
p1987
(S'kEse'
p1988
V\u0915\u0948\u0938\u0947
p1989
tp1990
sS'janwar'
p1991
(S'jAnavara'
p1992
V\u091c\u093e\u0928\u0935\u0930
p1993
tp1994
sS'logon'
p1995
(S'logoM'
p1996
V\u0932\u094b\u0917\u094b\u0902
p1997
tp1998
sS'kyn'
p1999
(S'kyaM'
p2000
V\u0915\u094d\u092f\u0902
p2001
tp2002
sS'mazze'
p2003
(S'macAe'
p2004
V\u092e\u091a\u093e\u090f
p2005
tp2006
sS'kya'
p2007
(S'kyA'
p2008
V\u0915\u094d\u092f\u093e
p2009
tp2010
sS'samjh'
p2011
(S'samaJa'
p2012
V\u0938\u092e\u091d
p2013
tp2014
sS'kyu'
p2015
(S'kyU'
p2016
V\u0915\u094d\u092f\u0942
p2017
tp2018
sS'usne'
p2019
(S'usane'
p2020
V\u0909\u0938\u0928\u0947
p2021
tp2022
sS'afsos'
p2023
(S'aPasosa'
p2024
V\u0905\u092b\u0938\u094b\u0938
p2025
tp2026
sS'namumkin'
p2027
(S'nAmumakina'
p2028
V\u0928\u093e\u092e\u0941\u092e\u0915\u093f\u0928
p2029
tp2030
sS'bulate'
p2031
(S'bulAwe'
p2032
V\u092c\u0941\u0932\u093e\u0924\u0947
p2033
tp2034
sS'pine'
p2035
(S'pIne'
p2036
V\u092a\u0940\u0928\u0947
p2037
tp2038
sS'pauua'
p2039
(S'paUra'
p2040
V\u092a\u090a\u0930
p2041
tp2042
sS'pura'
p2043
(S'para'
p2044
V\u092a\u0930
p2045
tp2046
sS'sochta'
p2047
(S'socawA'
p2048
V\u0938\u094b\u091a\u0924\u093e
p2049
tp2050
sS'puri'
p2051
(S'pUrI'
p2052
V\u092a\u0942\u0930\u0940
p2053
tp2054
sS'dekhni'
p2055
(S'xeKanI'
p2056
V\u0926\u0947\u0916\u0928\u0940
p2057
tp2058
sS'joote'
p2059
(S'jUwe'
p2060
V\u091c\u0942\u0924\u0947
p2061
tp2062
sS'mar'
p2063
(S'mAra'
p2064
V\u092e\u093e\u0930
p2065
tp2066
sS'mat'
p2067
(S'mawa'
p2068
V\u092e\u0924
p2069
tp2070
sS'may'
p2071
(S'maya'
p2072
V\u092e\u092f
p2073
tp2074
sS'maa'
p2075
(S'mAnA'
p2076
V\u092e\u093e\u0928\u093e
p2077
tp2078
sS'mae'
p2079
(S'mAM'
p2080
V\u092e\u093e\u0902
p2081
tp2082
sS'mai'
p2083
(S'mAI'
p2084
V\u092e\u093e\u0908
p2085
tp2086
sS'khokla'
p2087
(S'KoKalA'
p2088
V\u0916\u094b\u0916\u0932\u093e
p2089
tp2090
sS'man'
p2091
(S'mAM'
p2092
V\u092e\u093e\u0902
p2093
tp2094
sS'btaa'
p2095
(S'bawAyA'
p2096
V\u092c\u0924\u093e\u092f\u093e
p2097
tp2098
sS'ghr'
p2099
(S'Gara'
p2100
V\u0918\u0930
p2101
tp2102
sS'devi'
p2103
(S'xevI'
p2104
V\u0926\u0947\u0935\u0940
p2105
tp2106
sS'btao'
p2107
(S'bawAo'
p2108
V\u092c\u0924\u093e\u0913
p2109
tp2110
sS'q'
p2111
(S'ka'
p2112
V\u0915
p2113
tp2114
sS'si'
p2115
(S'se'
p2116
V\u0938\u0947
p2117
tp2118
sS'so'
p2119
(S'se'
p2120
V\u0938\u0947
p2121
tp2122
sS'jaio'
p2123
(S'jAyo'
p2124
V\u091c\u093e\u092f\u094b
p2125
tp2126
sS'sb'
p2127
(S'saba'
p2128
V\u0938\u092c
p2129
tp2130
sS'sa'
p2131
(S'sA'
p2132
V\u0938\u093e
p2133
tp2134
sS'manga'
p2135
(S'mAMga'
p2136
V\u092e\u093e\u0902\u0917
p2137
tp2138
sS'se'
p2139
(S'se'
p2140
V\u0938\u0947
p2141
tp2142
sS'karunga'
p2143
(S'karUzgA'
p2144
V\u0915\u0930\u0942\u0901\u0917\u093e
p2145
tp2146
sS'wajah'
p2147
(S'vajaha'
p2148
V\u0935\u091c\u0939
p2149
tp2150
sS'karungi'
p2151
(S'karUMgI'
p2152
V\u0915\u0930\u0942\u0902\u0917\u0940
p2153
tp2154
sS'kadam'
p2155
(S'kaxama'
p2156
V\u0915\u0926\u092e
p2157
tp2158
sS'ghota'
p2159
(S'GotA'
p2160
V\u0918\u094b\u091f\u093e
p2161
tp2162
sS'jin'
p2163
(S'jina'
p2164
V\u091c\u093f\u0928
p2165
tp2166
sS'nautanki'
p2167
(S'nOtaMkI'
p2168
V\u0928\u094c\u091f\u0902\u0915\u0940
p2169
tp2170
sS'feri'
p2171
(S'PerI'
p2172
V\u092b\u0947\u0930\u0940
p2173
tp2174
sS'jis'
p2175
(S'jisa'
p2176
V\u091c\u093f\u0938
p2177
tp2178
sS'bura'
p2179
(S'burA'
p2180
V\u092c\u0941\u0930\u093e
p2181
tp2182
sS'main'
p2183
(S'mAina'
p2184
V\u092e\u093e\u0907\u0928
p2185
tp2186
sS'jaegi'
p2187
(S'jAegI'
p2188
V\u091c\u093e\u090f\u0917\u0940
p2189
tp2190
sS'marzi'
p2191
(S'marjZI'
p2192
V\u092e\u0930\u094d\u091c\u093c\u0940
p2193
tp2194
sS'tje'
p2195
(S'waise'
p2196
V\u0924\u0907\u0938\u0947
p2197
tp2198
sS'rakh'
p2199
(S'raKa'
p2200
V\u0930\u0916
p2201
tp2202
sS'jaega'
p2203
(S'jAegA'
p2204
V\u091c\u093e\u090f\u0917\u093e
p2205
tp2206
sS'batado'
p2207
(S'bacAbo'
p2208
V\u092c\u091a\u093e\u092c\u094b
p2209
tp2210
sS'behtar'
p2211
(S'behawara'
p2212
V\u092c\u0947\u0939\u0924\u0930
p2213
tp2214
sS'kaheen'
p2215
(S'kahIM'
p2216
V\u0915\u0939\u0940\u0902
p2217
tp2218
sS'bcha'
p2219
(S'bacA'
p2220
V\u092c\u091a\u093e
p2221
tp2222
sS'teri'
p2223
(S'werI'
p2224
V\u0924\u0947\u0930\u0940
p2225
tp2226
sS'tere'
p2227
(S'were'
p2228
V\u0924\u0947\u0930\u0947
p2229
tp2230
sS'tera'
p2231
(S'werA'
p2232
V\u0924\u0947\u0930\u093e
p2233
tp2234
sS'namo'
p2235
(S'nAma'
p2236
V\u0928\u093e\u092e
p2237
tp2238
sS'diye'
p2239
(S'xiyA'
p2240
V\u0926\u093f\u092f\u093e
p2241
tp2242
sS'pahle'
p2243
(S'pahale'
p2244
V\u092a\u0939\u0932\u0947
p2245
tp2246
sS'ghar'
p2247
(S'Gara'
p2248
V\u0918\u0930
p2249
tp2250
sS'vrna'
p2251
(S'varanA'
p2252
V\u0935\u0930\u0928\u093e
p2253
tp2254
sS'padha'
p2255
(S'paDZA'
p2256
V\u092a\u0922\u093c\u093e
p2257
tp2258
sS'ek'
p2259
(S'eka'
p2260
V\u090f\u0915
p2261
tp2262
sS'padhe'
p2263
(S'padZe'
p2264
V\u092a\u0921\u093c\u0947
p2265
tp2266
sS'padho'
p2267
(S'paDZo'
p2268
V\u092a\u0922\u093c\u094b
p2269
tp2270
sS'chupan'
p2271
(S'Cagana'
p2272
V\u091b\u0917\u0928
p2273
tp2274
sS'jayada'
p2275
(S'jayAxA'
p2276
V\u091c\u092f\u093e\u0926\u093e
p2277
tp2278
sS'hajar'
p2279
(S'hajAra'
p2280
V\u0939\u091c\u093e\u0930
p2281
tp2282
sS'phuk'
p2283
(S'Pa'
p2284
V\u092b
p2285
tp2286
sS'bla'
p2287
(S'BalA'
p2288
V\u092d\u0932\u093e
p2289
tp2290
sS'rahenge'
p2291
(S'raheMge'
p2292
V\u0930\u0939\u0947\u0902\u0917\u0947
p2293
tp2294
sS'tumhein'
p2295
(S'wumhIM'
p2296
V\u0924\u0941\u092e\u094d\u0939\u0940\u0902
p2297
tp2298
sS'maari'
p2299
(S'mArI'
p2300
V\u092e\u093e\u0930\u0940
p2301
tp2302
sS'bolte'
p2303
(S'bolawe'
p2304
V\u092c\u094b\u0932\u0924\u0947
p2305
tp2306
sS'kabada'
p2307
(S'kabAdZA'
p2308
V\u0915\u092c\u093e\u0921\u093c\u093e
p2309
tp2310
sS'bahiyya'
p2311
(S'baMWiyA'
p2312
V\u092c\u0902\u0925\u093f\u092f\u093e
p2313
tp2314
sS'bolta'
p2315
(S'bolawA'
p2316
V\u092c\u094b\u0932\u0924\u093e
p2317
tp2318
sS'qk'
p2319
(S'kaMjaka'
p2320
V\u0915\u0902\u091c\u0915
p2321
tp2322
sS'bolti'
p2323
(S'bolawI'
p2324
V\u092c\u094b\u0932\u0924\u0940
p2325
tp2326
sS'yahan'
p2327
(S'yahAM'
p2328
V\u092f\u0939\u093e\u0902
p2329
tp2330
sS'btameez'
p2331
(S'bawamIjI'
p2332
V\u092c\u0924\u092e\u0940\u091c\u0940
p2333
tp2334
sS'gaaliyan'
p2335
(S'gAliyAz'
p2336
V\u0917\u093e\u0932\u093f\u092f\u093e\u0901
p2337
tp2338
sS'kitni'
p2339
(S'kiwanI'
p2340
V\u0915\u093f\u0924\u0928\u0940
p2341
tp2342
sS'kitno'
p2343
(S'kiwano'
p2344
V\u0915\u093f\u0924\u0928\u094b
p2345
tp2346
sS'kitna'
p2347
(S'kiwanA'
p2348
V\u0915\u093f\u0924\u0928\u093e
p2349
tp2350
sS'bhijwa'
p2351
(S'BijavA'
p2352
V\u092d\u093f\u091c\u0935\u093e
p2353
tp2354
sS'kitne'
p2355
(S'kiwane'
p2356
V\u0915\u093f\u0924\u0928\u0947
p2357
tp2358
sS'xa'
p2359
(S'xA'
p2360
V\u0926\u093e
p2361
tp2362
sS'dega'
p2363
(S'xegA'
p2364
V\u0926\u0947\u0917\u093e
p2365
tp2366
sS'zindagi'
p2367
(S'jZiMxagI'
p2368
V\u091c\u093c\u093f\u0902\u0926\u0917\u0940
p2369
tp2370
sS'khush'
p2371
(S'KuSa'
p2372
V\u0916\u0941\u0936
p2373
tp2374
sS'krayie'
p2375
(S'krAya'
p2376
V\u0915\u094d\u0930\u093e\u092f
p2377
tp2378
sS'masala'
p2379
(S'masAlA'
p2380
V\u092e\u0938\u093e\u0932\u093e
p2381
tp2382
sS'hue'
p2383
(S'hue'
p2384
V\u0939\u0941\u090f
p2385
tp2386
sS'hua'
p2387
(S'huA'
p2388
V\u0939\u0941\u0906
p2389
tp2390
sS'alag'
p2391
(S'alaga'
p2392
V\u0905\u0932\u0917
p2393
tp2394
sS'hum'
p2395
(S'hama'
p2396
V\u0939\u092e
p2397
tp2398
sS'hun'
p2399
(S'hEM'
p2400
V\u0939\u0948\u0902
p2401
tp2402
sS'huh'
p2403
(S'ha'
p2404
V\u0939
p2405
tp2406
sS'hui'
p2407
(S'hue'
p2408
V\u0939\u0941\u090f
p2409
tp2410
sS'huk'
p2411
(S'haka'
p2412
V\u0939\u0915
p2413
tp2414
sS'thaa'
p2415
(S'WAnA'
p2416
V\u0925\u093e\u0928\u093e
p2417
tp2418
sS'larke'
p2419
(S'laMkA'
p2420
V\u0932\u0902\u0915\u093e
p2421
tp2422
sS'shuak'
p2423
(S'Saka'
p2424
V\u0936\u0915
p2425
tp2426
sS'thak'
p2427
(S'TAka'
p2428
V\u0920\u093e\u0915
p2429
tp2430
sS'moholla'
p2431
(S'mohallA'
p2432
V\u092e\u094b\u0939\u0932\u094d\u0932\u093e
p2433
tp2434
sS'chada'
p2435
(S'cAra'
p2436
V\u091a\u093e\u0930
p2437
tp2438
sS'ajata'
p2439
(S'ajawa'
p2440
V\u0905\u091c\u0924
p2441
tp2442
sS'ajate'
p2443
(S'aGAwe'
p2444
V\u0905\u0918\u093e\u0924\u0947
p2445
tp2446
sS'r'
p2447
(S'ra'
p2448
V\u0930
p2449
tp2450
sS'rhegi'
p2451
(S'rahegI'
p2452
V\u0930\u0939\u0947\u0917\u0940
p2453
tp2454
sS'jnki'
p2455
(S'jakI'
p2456
V\u091c\u0915\u0940
p2457
tp2458
sS'ana'
p2459
(S'AnA'
p2460
V\u0906\u0928\u093e
p2461
tp2462
sS'sab'
p2463
(S'saba'
p2464
V\u0938\u092c
p2465
tp2466
sS'jamata'
p2467
(S'jamAwa'
p2468
V\u091c\u092e\u093e\u0924
p2469
tp2470
sS'sulk'
p2471
(S'Sulka'
p2472
V\u0936\u0941\u0932\u094d\u0915
p2473
tp2474
sS'dadaji'
p2475
(S'xAxAjI'
p2476
V\u0926\u093e\u0926\u093e\u091c\u0940
p2477
tp2478
sS'rtae'
p2479
(S'ratAI'
p2480
V\u0930\u091f\u093e\u0908
p2481
tp2482
sS'take'
p2483
(S'waka'
p2484
V\u0924\u0915
p2485
tp2486
sS'smjha'
p2487
(S'samaJA'
p2488
V\u0938\u092e\u091d\u093e
p2489
tp2490
sS'smjhe'
p2491
(S'samaJe'
p2492
V\u0938\u092e\u091d\u0947
p2493
tp2494
sS'pakaya'
p2495
(S'pakAyA'
p2496
V\u092a\u0915\u093e\u092f\u093e
p2497
tp2498
sS'bkwaas'
p2499
(S'bakabAsa'
p2500
V\u092c\u0915\u092c\u093e\u0938
p2501
tp2502
sS'kehte'
p2503
(S'kahawe'
p2504
V\u0915\u0939\u0924\u0947
p2505
tp2506
sS'kehta'
p2507
(S'kahawA'
p2508
V\u0915\u0939\u0924\u093e
p2509
tp2510
sS'inki'
p2511
(S'inakI'
p2512
V\u0907\u0928\u0915\u0940
p2513
tp2514
sS'beta'
p2515
(S'betA'
p2516
V\u092c\u0947\u091f\u093e
p2517
tp2518
sS'samghe'
p2519
(S'saMga'
p2520
V\u0938\u0902\u0917
p2521
tp2522
sS'bete'
p2523
(S'bete'
p2524
V\u092c\u0947\u091f\u0947
p2525
tp2526
sS'inko'
p2527
(S'inako'
p2528
V\u0907\u0928\u0915\u094b
p2529
tp2530
sS'pair'
p2531
(S'pAtIr'
p2532
V\u092a\u093e\u091f\u0940\u0930\u094d
p2533
tp2534
sS'bataya'
p2535
(S'bawAyA'
p2536
V\u092c\u0924\u093e\u092f\u093e
p2537
tp2538
sS'inke'
p2539
(S'inake'
p2540
V\u0907\u0928\u0915\u0947
p2541
tp2542
sS'bataye'
p2543
(S'bawAye'
p2544
V\u092c\u0924\u093e\u092f\u0947
p2545
tp2546
sS'achaanak'
p2547
(S'acAnaka'
p2548
V\u0905\u091a\u093e\u0928\u0915
p2549
tp2550
sS'sala'
p2551
(S'sAla'
p2552
V\u0938\u093e\u0932
p2553
tp2554
sS'dhakka'
p2555
(S'XakkA'
p2556
V\u0927\u0915\u094d\u0915\u093e
p2557
tp2558
sS'sale'
p2559
(S'sAla'
p2560
V\u0938\u093e\u0932
p2561
tp2562
sS'dhakke'
p2563
(S'Xakke'
p2564
V\u0927\u0915\u094d\u0915\u0947
p2565
tp2566
sS'isko'
p2567
(S'isako'
p2568
V\u0907\u0938\u0915\u094b
p2569
tp2570
sS'iski'
p2571
(S'isakI'
p2572
V\u0907\u0938\u0915\u0940
p2573
tp2574
sS'phir'
p2575
(S'pahira'
p2576
V\u092a\u0939\u093f\u0930
p2577
tp2578
sS'bada'
p2579
(S'bAxa'
p2580
V\u092c\u093e\u0926
p2581
tp2582
sS'iske'
p2583
(S'isake'
p2584
V\u0907\u0938\u0915\u0947
p2585
tp2586
sS'mre'
p2587
(S'mare'
p2588
V\u092e\u0930\u0947
p2589
tp2590
sS'iska'
p2591
(S'isakA'
p2592
V\u0907\u0938\u0915\u093e
p2593
tp2594
sS'badi'
p2595
(S'badZI'
p2596
V\u092c\u0921\u093c\u0940
p2597
tp2598
sS'rahega'
p2599
(S'rahegA'
p2600
V\u0930\u0939\u0947\u0917\u093e
p2601
tp2602
sS'raja'
p2603
(S'rAjA'
p2604
V\u0930\u093e\u091c\u093e
p2605
tp2606
sS'rahegi'
p2607
(S'rahegI'
p2608
V\u0930\u0939\u0947\u0917\u0940
p2609
tp2610
sS'daaru'
p2611
(S'daOra'
p2612
V\u0921\u0914\u0930
p2613
tp2614
sS'isne'
p2615
(S'isane'
p2616
V\u0907\u0938\u0928\u0947
p2617
tp2618
sS'chhap'
p2619
(S'CApa'
p2620
V\u091b\u093e\u092a
p2621
tp2622
sS'maine'
p2623
(S'mAyane'
p2624
V\u092e\u093e\u092f\u0928\u0947
p2625
tp2626
sS'jhnd'
p2627
(S'Jajja'
p2628
V\u091d\u091c\u094d\u091c
p2629
tp2630
sS'kesi'
p2631
(S'kesI'
p2632
V\u0915\u0947\u0938\u0940
p2633
tp2634
sS'ladkiya'
p2635
(S'ladZakiyAM'
p2636
V\u0932\u0921\u093c\u0915\u093f\u092f\u093e\u0902
p2637
tp2638
sS'leke'
p2639
(S'leke'
p2640
V\u0932\u0947\u0915\u0947
p2641
tp2642
sS'daal'
p2643
(S'dAla'
p2644
V\u0921\u093e\u0932
p2645
tp2646
sS'ladkiyo'
p2647
(S'ladZakiyoM'
p2648
V\u0932\u0921\u093c\u0915\u093f\u092f\u094b\u0902
p2649
tp2650
sS'bilkul'
p2651
(S'bilkula'
p2652
V\u092c\u093f\u0932\u094d\u0915\u0941\u0932
p2653
tp2654
sS'rhega'
p2655
(S'rahegA'
p2656
V\u0930\u0939\u0947\u0917\u093e
p2657
tp2658
sS'chupai'
p2659
(S'cOpAI'
p2660
V\u091a\u094c\u092a\u093e\u0908
p2661
tp2662
sS'chhod'
p2663
(S'CodZa'
p2664
V\u091b\u094b\u0921\u093c
p2665
tp2666
sS'baith'
p2667
(S'baiTa'
p2668
V\u092c\u0907\u0920
p2669
tp2670
sS'miley'
p2671
(S'milI'
p2672
V\u092e\u093f\u0932\u0940
p2673
tp2674
sS'kaafi'
p2675
(S'kAPZI'
p2676
V\u0915\u093e\u092b\u093c\u0940
p2677
tp2678
sS'azaadi'
p2679
(S'AjZAxI'
p2680
V\u0906\u091c\u093c\u093e\u0926\u0940
p2681
tp2682
sS'espe'
p2683
(S'esapI'
p2684
V\u090f\u0938\u092a\u0940
p2685
tp2686
sS'suker'
p2687
(S'saMkara'
p2688
V\u0938\u0902\u0915\u0930
p2689
tp2690
sS'maane'
p2691
(S'mAyane'
p2692
V\u092e\u093e\u092f\u0928\u0947
p2693
tp2694
sS'maano'
p2695
(S'mAyano'
p2696
V\u092e\u093e\u092f\u0928\u094b
p2697
tp2698
sS'jta'
p2699
(S'jawA'
p2700
V\u091c\u0924\u093e
p2701
tp2702
sS'haare'
p2703
(S'hAre'
p2704
V\u0939\u093e\u0930\u0947
p2705
tp2706
sS'chudaai'
p2707
(S'cadZA'
p2708
V\u091a\u0921\u093c\u093e
p2709
tp2710
sS'hawas'
p2711
(S'havasa'
p2712
V\u0939\u0935\u0938
p2713
tp2714
sS'chacha'
p2715
(S'cAcA'
p2716
V\u091a\u093e\u091a\u093e
p2717
tp2718
sS'jo'
p2719
(S'jo'
p2720
V\u091c\u094b
p2721
tp2722
sS'ji'
p2723
(S'jI'
p2724
V\u091c\u0940
p2725
tp2726
sS'ja'
p2727
(S'jA'
p2728
V\u091c\u093e
p2729
tp2730
sS'jb'
p2731
(S'jaba'
p2732
V\u091c\u092c
p2733
tp2734
sS'tarike'
p2735
(S'warIke'
p2736
V\u0924\u0930\u0940\u0915\u0947
p2737
tp2738
sS'tarika'
p2739
(S'warIkA'
p2740
V\u0924\u0930\u0940\u0915\u093e
p2741
tp2742
sS'krtae'
p2743
(S'karwa'
p2744
V\u0915\u0930\u094d\u0924
p2745
tp2746
sS'mana'
p2747
(S'mAnA'
p2748
V\u092e\u093e\u0928\u093e
p2749
tp2750
sS's'
p2751
(S'sa'
p2752
V\u0938
p2753
tp2754
sS'mane'
p2755
(S'mAne'
p2756
V\u092e\u093e\u0928\u0947
p2757
tp2758
sS'chakkar'
p2759
(S'cakkara'
p2760
V\u091a\u0915\u094d\u0915\u0930
p2761
tp2762
sS'dkh'
p2763
(S'da'
p2764
V\u0921
p2765
tp2766
sS'tum'
p2767
(S'wuma'
p2768
V\u0924\u0941\u092e
p2769
tp2770
sS'tbhi'
p2771
(S'waMgI'
p2772
V\u0924\u0902\u0917\u0940
p2773
tp2774
sS'humein'
p2775
(S'hameM'
p2776
V\u0939\u092e\u0947\u0902
p2777
tp2778
sS'aaja'
p2779
(S'AjA'
p2780
V\u0906\u091c\u093e
p2781
tp2782
sS'mara'
p2783
(S'mAra'
p2784
V\u092e\u093e\u0930
p2785
tp2786
sS'maro'
p2787
(S'mAro'
p2788
V\u092e\u093e\u0930\u094b
p2789
tp2790
sS'mari'
p2791
(S'mArI'
p2792
V\u092e\u093e\u0930\u0940
p2793
tp2794
sS'jrurt'
p2795
(S'jarUrawa'
p2796
V\u091c\u0930\u0942\u0930\u0924
p2797
tp2798
sS'wese'
p2799
(S'vese'
p2800
V\u0935\u0947\u0938\u0947
p2801
tp2802
sS'wesa'
p2803
(S'vesA'
p2804
V\u0935\u0947\u0938\u093e
p2805
tp2806
sS'chudi'
p2807
(S'cOdZI'
p2808
V\u091a\u094c\u0921\u093c\u0940
p2809
tp2810
sS'wakt'
p2811
(S'vakwa'
p2812
V\u0935\u0915\u094d\u0924
p2813
tp2814
sS'padke'
p2815
(S'paDZake'
p2816
V\u092a\u0922\u093c\u0915\u0947
p2817
tp2818
sS'aadmi'
p2819
(S'AaxamI'
p2820
V\u0906\u0905\u0926\u092e\u0940
p2821
tp2822
sS'bachao'
p2823
(S'bacAo'
p2824
V\u092c\u091a\u093e\u0913
p2825
tp2826
sS'chal'
p2827
(S'cAla'
p2828
V\u091a\u093e\u0932
p2829
tp2830
sS'baad'
p2831
(S'bANda'
p2832
V\u092c\u093e\u0923\u094d\u0921
p2833
tp2834
sS'kripya'
p2835
(S'kqpayA'
p2836
V\u0915\u0943\u092a\u092f\u093e
p2837
tp2838
sS'hdd'
p2839
(S'haxa'
p2840
V\u0939\u0926
p2841
tp2842
sS'eid'
p2843
(S'eNda'
p2844
V\u090f\u0923\u094d\u0921
p2845
tp2846
sS'shanti'
p2847
(S'SAMwi'
p2848
V\u0936\u093e\u0902\u0924\u093f
p2849
tp2850
sS'padhai'
p2851
(S'paDZAI'
p2852
V\u092a\u0922\u093c\u093e\u0908
p2853
tp2854
sS'rakhsha'
p2855
(S'rakwa'
p2856
V\u0930\u0915\u094d\u0924
p2857
tp2858
sS'pakka'
p2859
(S'pakkA'
p2860
V\u092a\u0915\u094d\u0915\u093e
p2861
tp2862
sS'tutegi'
p2863
(S'tUtegI'
p2864
V\u091f\u0942\u091f\u0947\u0917\u0940
p2865
tp2866
sS'vese'
p2867
(S'vEse'
p2868
V\u0935\u0948\u0938\u0947
p2869
tp2870
sS'koshish'
p2871
(S'koSiSa'
p2872
V\u0915\u094b\u0936\u093f\u0936
p2873
tp2874
sS'daalna'
p2875
(S'dAlanA'
p2876
V\u0921\u093e\u0932\u0928\u093e
p2877
tp2878
sS'dawai'
p2879
(S'xavAI'
p2880
V\u0926\u0935\u093e\u0908
p2881
tp2882
sS'saath'
p2883
(S'saMWA'
p2884
V\u0938\u0902\u0925\u093e
p2885
tp2886
sS'raajneeti'
p2887
(S'rAjanIwI'
p2888
V\u0930\u093e\u091c\u0928\u0940\u0924\u0940
p2889
tp2890
sS'pas'
p2891
(S'pAsa'
p2892
V\u092a\u093e\u0938
p2893
tp2894
sS'dolna'
p2895
(S'datanA'
p2896
V\u0921\u091f\u0928\u093e
p2897
tp2898
sS'banake'
p2899
(S'banAke'
p2900
V\u092c\u0928\u093e\u0915\u0947
p2901
tp2902
sS'pad'
p2903
(S'paxa'
p2904
V\u092a\u0926
p2905
tp2906
sS'ahshano'
p2907
(S'ahshano'
p2908
V\u0905\u0939\u094d\u0938\u094d\u0939\u0928\u094b
p2909
tp2910
sS'baksh'
p2911
(S'bakSa'
p2912
V\u092c\u0915\u094d\u0936
p2913
tp2914
sS'budaphe'
p2915
(S'bujAke'
p2916
V\u092c\u0941\u091c\u093e\u0915\u0947
p2917
tp2918
sS'pal'
p2919
(S'pAla'
p2920
V\u092a\u093e\u0932
p2921
tp2922
sS'pao'
p2923
(S'pAo'
p2924
V\u092a\u093e\u0913
p2925
tp2926
sS'kutta'
p2927
(S'kuwwA'
p2928
V\u0915\u0941\u0924\u094d\u0924\u093e
p2929
tp2930
sS'lakin'
p2931
(S'lakina'
p2932
V\u0932\u0915\u093f\u0928
p2933
tp2934
sS'aarakshit'
p2935
(S'ArakRiwa'
p2936
V\u0906\u0930\u0915\u094d\u0937\u093f\u0924
p2937
tp2938
sS'kutti'
p2939
(S'kuttI'
p2940
V\u0915\u0941\u091f\u094d\u091f\u0940
p2941
tp2942
sS'kutto'
p2943
(S'kuwwoM'
p2944
V\u0915\u0941\u0924\u094d\u0924\u094b\u0902
p2945
tp2946
sS'tarh'
p2947
(S'waraha'
p2948
V\u0924\u0930\u0939
p2949
tp2950
sS'hmari'
p2951
(S'hamArI'
p2952
V\u0939\u092e\u093e\u0930\u0940
p2953
tp2954
sS'hmare'
p2955
(S'hamAre'
p2956
V\u0939\u092e\u093e\u0930\u0947
p2957
tp2958
sS'aankho'
p2959
(S'AzKo'
p2960
V\u0906\u0901\u0916\u094b
p2961
tp2962
sS'barish'
p2963
(S'bAriSa'
p2964
V\u092c\u093e\u0930\u093f\u0936
p2965
tp2966
sS'hmara'
p2967
(S'hamArA'
p2968
V\u0939\u092e\u093e\u0930\u093e
p2969
tp2970
sS'kranti'
p2971
(S'krAMwi'
p2972
V\u0915\u094d\u0930\u093e\u0902\u0924\u093f
p2973
tp2974
sS'waala'
p2975
(S'vAlA'
p2976
V\u0935\u093e\u0932\u093e
p2977
tp2978
sS'yhi'
p2979
(S'yahI'
p2980
V\u092f\u0939\u0940
p2981
tp2982
sS'maanke'
p2983
(S'mAnake'
p2984
V\u092e\u093e\u0928\u0915\u0947
p2985
tp2986
sS'kaam'
p2987
(S'kAma'
p2988
V\u0915\u093e\u092e
p2989
tp2990
sS'yha'
p2991
(S'yaha'
p2992
V\u092f\u0939
p2993
tp2994
sS'payga'
p2995
(S'pAegA'
p2996
V\u092a\u093e\u090f\u0917\u093e
p2997
tp2998
sS'kaat'
p2999
(S'kAsta'
p3000
V\u0915\u093e\u0938\u094d\u091f
p3001
tp3002
sS'nai'
p3003
(S'naI'
p3004
V\u0928\u0908
p3005
tp3006
sS'tare'
p3007
(S'wAre'
p3008
V\u0924\u093e\u0930\u0947
p3009
tp3010
sS'leta'
p3011
(S'lewA'
p3012
V\u0932\u0947\u0924\u093e
p3013
tp3014
sS'lete'
p3015
(S'lewe'
p3016
V\u0932\u0947\u0924\u0947
p3017
tp3018
sS'lgegi'
p3019
(S'lagegI'
p3020
V\u0932\u0917\u0947\u0917\u0940
p3021
tp3022
sS'leti'
p3023
(S'lewI'
p3024
V\u0932\u0947\u0924\u0940
p3025
tp3026
sS'dhapli'
p3027
(S'DapalI'
p3028
V\u0922\u092a\u0932\u0940
p3029
tp3030
sS'4'
p3031
(g3031
V4
p3032
tp3033
sS'wranti'
p3034
(S'rataMwa'
p3035
V\u0930\u091f\u0902\u0924
p3036
tp3037
sS'sbne'
p3038
(S'sabane'
p3039
V\u0938\u092c\u0928\u0947
p3040
tp3041
sS'darr'
p3042
(S'xara'
p3043
V\u0926\u0930
p3044
tp3045
sS'daru'
p3046
(S'xArU'
p3047
V\u0926\u093e\u0930\u0942
p3048
tp3049
sS'jaago'
p3050
(S'jAgo'
p3051
V\u091c\u093e\u0917\u094b
p3052
tp3053
sS'dita'
p3054
(S'xewA'
p3055
V\u0926\u0947\u0924\u093e
p3056
tp3057
sS'dard'
p3058
(S'xarxa'
p3059
V\u0926\u0930\u094d\u0926
p3060
tp3061
sS'musibat'
p3062
(S'musIbawa'
p3063
V\u092e\u0941\u0938\u0940\u092c\u0924
p3064
tp3065
sS'deta'
p3066
(S'xewA'
p3067
V\u0926\u0947\u0924\u093e
p3068
tp3069
sS'dete'
p3070
(S'xewe'
p3071
V\u0926\u0947\u0924\u0947
p3072
tp3073
sS'nakhre'
p3074
(S'naKare'
p3075
V\u0928\u0916\u0930\u0947
p3076
tp3077
sS'harami'
p3078
(S'harAmI'
p3079
V\u0939\u0930\u093e\u092e\u0940
p3080
tp3081
sS'sangharsh'
p3082
(S'saMGarRa'
p3083
V\u0938\u0902\u0918\u0930\u094d\u0937
p3084
tp3085
sS'naag'
p3086
(S'nAnaga'
p3087
V\u0928\u093e\u0928\u0917
p3088
tp3089
sS'haase'
p3090
(S'hAxase'
p3091
V\u0939\u093e\u0926\u0938\u0947
p3092
tp3093
sS'naam'
p3094
(S'nAkAma'
p3095
V\u0928\u093e\u0915\u093e\u092e
p3096
tp3097
sS'tanha'
p3098
(S'wanhA'
p3099
V\u0924\u0928\u094d\u0939\u093e
p3100
tp3101
sS'avehi'
p3102
(S'a5'
p3103
V\u09055
p3104
tp3105
sS'garvnirodhk'
p3106
(S'garBaniroXaka'
p3107
V\u0917\u0930\u094d\u092d\u0928\u093f\u0930\u094b\u0927\u0915
p3108
tp3109
sS'piche'
p3110
(S'pICe'
p3111
V\u092a\u0940\u091b\u0947
p3112
tp3113
sS'picha'
p3114
(S'pICA'
p3115
V\u092a\u0940\u091b\u093e
p3116
tp3117
sS'dekho'
p3118
(S'xeKo'
p3119
V\u0926\u0947\u0916\u094b
p3120
tp3121
sS'dekhi'
p3122
(S'xeKI'
p3123
V\u0926\u0947\u0916\u0940
p3124
tp3125
sS'jageh'
p3126
(S'jAgeha'
p3127
V\u091c\u093e\u0917\u0947\u0939
p3128
tp3129
sS'sari'
p3130
(S'sArI'
p3131
V\u0938\u093e\u0930\u0940
p3132
tp3133
sS'karwate'
p3134
(S'karavAwe'
p3135
V\u0915\u0930\u0935\u093e\u0924\u0947
p3136
tp3137
sS'chooza'
p3138
(S'cUjZa'
p3139
V\u091a\u0942\u091c\u093c
p3140
tp3141
sS'karwati'
p3142
(S'karavAwI'
p3143
V\u0915\u0930\u0935\u093e\u0924\u0940
p3144
tp3145
sS'asan'
p3146
(S'AsAna'
p3147
V\u0906\u0938\u093e\u0928
p3148
tp3149
sS'chod'
p3150
(S'CodZa'
p3151
V\u091b\u094b\u0921\u093c
p3152
tp3153
sS'btana'
p3154
(S'bawAnA'
p3155
V\u092c\u0924\u093e\u0928\u093e
p3156
tp3157
sS'darshan'
p3158
(S'xarSana'
p3159
V\u0926\u0930\u094d\u0936\u0928
p3160
tp3161
sS'oh'
p3162
(S'oha'
p3163
V\u0913\u0939
p3164
tp3165
sS'jeet'
p3166
(S'jIwa'
p3167
V\u091c\u0940\u0924
p3168
tp3169
sS'karao'
p3170
(S'karAo'
p3171
V\u0915\u0930\u093e\u0913
p3172
tp3173
sS'chor'
p3174
(S'cora'
p3175
V\u091a\u094b\u0930
p3176
tp3177
sS'langar'
p3178
(S'laMgara'
p3179
V\u0932\u0902\u0917\u0930
p3180
tp3181
sS'krwao'
p3182
(S'karavAo'
p3183
V\u0915\u0930\u0935\u093e\u0913
p3184
tp3185
sS'humbhi'
p3186
(S'hazsI'
p3187
V\u0939\u0901\u0938\u0940
p3188
tp3189
sS'or'
p3190
(S'Ora'
p3191
V\u0914\u0930
p3192
tp3193
sS'aese'
p3194
(S'Aesa'
p3195
V\u0906\u090f\u0938
p3196
tp3197
sS'purana'
p3198
(S'purAnA'
p3199
V\u092a\u0941\u0930\u093e\u0928\u093e
p3200
tp3201
sS'aesa'
p3202
(S'AesA'
p3203
V\u0906\u090f\u0938\u093e
p3204
tp3205
sS'purane'
p3206
(S'purAne'
p3207
V\u092a\u0941\u0930\u093e\u0928\u0947
p3208
tp3209
sS'khayi'
p3210
(S'KAyI'
p3211
V\u0916\u093e\u092f\u0940
p3212
tp3213
sS'ladkii'
p3214
(S'ladZakI'
p3215
V\u0932\u0921\u093c\u0915\u0940
p3216
tp3217
sS'purani'
p3218
(S'purAnI'
p3219
V\u092a\u0941\u0930\u093e\u0928\u0940
p3220
tp3221
sS'ladkio'
p3222
(S'ladZakioM'
p3223
V\u0932\u0921\u093c\u0915\u093f\u0913\u0902
p3224
tp3225
sS'aesi'
p3226
(S'AIsI'
p3227
V\u0906\u0908\u0938\u0940
p3228
tp3229
sS'jitna'
p3230
(S'jiwanA'
p3231
V\u091c\u093f\u0924\u0928\u093e
p3232
tp3233
sS'nikla'
p3234
(S'nikalA'
p3235
V\u0928\u093f\u0915\u0932\u093e
p3236
tp3237
sS'yar'
p3238
(S'yAra'
p3239
V\u092f\u093e\u0930
p3240
tp3241
sS'shabash'
p3242
(S'SAbASa'
p3243
V\u0936\u093e\u092c\u093e\u0936
p3244
tp3245
sS'log'
p3246
(S'loga'
p3247
V\u0932\u094b\u0917
p3248
tp3249
sS'bhaya'
p3250
(S'bahAyA'
p3251
V\u092c\u0939\u093e\u092f\u093e
p3252
tp3253
sS'lijiye'
p3254
(S'lIjiye'
p3255
V\u0932\u0940\u091c\u093f\u092f\u0947
p3256
tp3257
sS'arey'
p3258
(S'arGya'
p3259
V\u0905\u0930\u094d\u0918\u094d\u092f
p3260
tp3261
sS'dastak'
p3262
(S'xaswaka'
p3263
V\u0926\u0938\u094d\u0924\u0915
p3264
tp3265
sS'chata'
p3266
(S'jAwA'
p3267
V\u091c\u093e\u0924\u093e
p3268
tp3269
sS'baitha'
p3270
(S'baiTA'
p3271
V\u092c\u0907\u0920\u093e
p3272
tp3273
sS'marne'
p3274
(S'mArane'
p3275
V\u092e\u093e\u0930\u0928\u0947
p3276
tp3277
sS'marna'
p3278
(S'mAranA'
p3279
V\u092e\u093e\u0930\u0928\u093e
p3280
tp3281
sS'mazaak'
p3282
(S'majZAka'
p3283
V\u092e\u091c\u093c\u093e\u0915
p3284
tp3285
sS'mujhe'
p3286
(S'muJe'
p3287
V\u092e\u0941\u091d\u0947
p3288
tp3289
sS'hunnnn'
p3290
(S'hanana'
p3291
V\u0939\u0928\u0928
p3292
tp3293
sS'aa'
p3294
(S'AyA'
p3295
V\u0906\u092f\u093e
p3296
tp3297
sS'batwaenge'
p3298
(S'bacAeMge'
p3299
V\u092c\u091a\u093e\u090f\u0902\u0917\u0947
p3300
tp3301
sS'ab'
p3302
(S'aba'
p3303
V\u0905\u092c
p3304
tp3305
sS'ae'
p3306
(S'Ae'
p3307
V\u0906\u090f
p3308
tp3309
sS'ag'
p3310
(S'Aga'
p3311
V\u0906\u0917
p3312
tp3313
sS'bolne'
p3314
(S'bolane'
p3315
V\u092c\u094b\u0932\u0928\u0947
p3316
tp3317
sS'ak'
p3318
(S'eka'
p3319
V\u090f\u0915
p3320
tp3321
sS'aj'
p3322
(S'Aja'
p3323
V\u0906\u091c
p3324
tp3325
sS'ap'
p3326
(S'Apa'
p3327
V\u0906\u092a
p3328
tp3329
sS'as'
p3330
(S'Asa'
p3331
V\u0906\u0938
p3332
tp3333
sS'kucj'
p3334
(S'ka'
p3335
V\u0915
p3336
tp3337
sS'bhejna'
p3338
(S'BejanA'
p3339
V\u092d\u0947\u091c\u0928\u093e
p3340
tp3341
sS'phela'
p3342
(S'pahela'
p3343
V\u092a\u0939\u0947\u0932
p3344
tp3345
sS'kabi'
p3346
(S'kaBI'
p3347
V\u0915\u092d\u0940
p3348
tp3349
sS'humko'
p3350
(S'hamako'
p3351
V\u0939\u092e\u0915\u094b
p3352
tp3353
sS'ansu'
p3354
(S'AMsU'
p3355
V\u0906\u0902\u0938\u0942
p3356
tp3357
sS'safar'
p3358
(S'saPara'
p3359
V\u0938\u092b\u0930
p3360
tp3361
sS'kharab'
p3362
(S'KarAba'
p3363
V\u0916\u0930\u093e\u092c
p3364
tp3365
sS'chabi'
p3366
(S'cAbI'
p3367
V\u091a\u093e\u092c\u0940
p3368
tp3369
sS'patthi'
p3370
(S'paMWI'
p3371
V\u092a\u0902\u0925\u0940
p3372
tp3373
sS'aakr'
p3374
(S'Azra'
p3375
V\u0906\u0901\u0930
p3376
tp3377
sS'mast'
p3378
(S'maswa'
p3379
V\u092e\u0938\u094d\u0924
p3380
tp3381
sS'u'
p3382
(S'U'
p3383
V\u090a
p3384
tp3385
sS'bankar'
p3386
(S'baMkara'
p3387
V\u092c\u0902\u0915\u0930
p3388
tp3389
sS'alg'
p3390
(S'alaga'
p3391
V\u0905\u0932\u0917
p3392
tp3393
sS'pta'
p3394
(S'pawA'
p3395
V\u092a\u0924\u093e
p3396
tp3397
sS'suni'
p3398
(S'sunI'
p3399
V\u0938\u0941\u0928\u0940
p3400
tp3401
sS'mna'
p3402
(S'manA'
p3403
V\u092e\u0928\u093e
p3404
tp3405
sS'sharafat'
p3406
(S'SarAPawa'
p3407
V\u0936\u0930\u093e\u092b\u0924
p3408
tp3409
sS'suna'
p3410
(S'sunA'
p3411
V\u0938\u0941\u0928\u093e
p3412
tp3413
sS'mne'
p3414
(S'mane'
p3415
V\u092e\u0928\u0947
p3416
tp3417
sS'sune'
p3418
(S'sune'
p3419
V\u0938\u0941\u0928\u0947
p3420
tp3421
sS'bharose'
p3422
(S'Barose'
p3423
V\u092d\u0930\u094b\u0938\u0947
p3424
tp3425
sS'tu'
p3426
(S'tU'
p3427
V\u091f\u0942
p3428
tp3429
sS'kbhi'
p3430
(S'kaMGI'
p3431
V\u0915\u0902\u0918\u0940
p3432
tp3433
sS'to'
p3434
(S'wo'
p3435
V\u0924\u094b
p3436
tp3437
sS'tm'
p3438
(S'wama'
p3439
V\u0924\u092e
p3440
tp3441
sS'th'
p3442
(S'wo'
p3443
V\u0924\u094b
p3444
tp3445
sS'te'
p3446
(S'We'
p3447
V\u0925\u0947
p3448
tp3449
sS'tb'
p3450
(S'waba'
p3451
V\u0924\u092c
p3452
tp3453
sS'ta'
p3454
(S'WA'
p3455
V\u0925\u093e
p3456
tp3457
sS'hisab'
p3458
(S'hisAba'
p3459
V\u0939\u093f\u0938\u093e\u092c
p3460
tp3461
sS'khushi'
p3462
(S'KuSI'
p3463
V\u0916\u0941\u0936\u0940
p3464
tp3465
sS'fas'
p3466
(S'PEMsa'
p3467
V\u092b\u0948\u0902\u0938
p3468
tp3469
sS'fat'
p3470
(S'PEta'
p3471
V\u092b\u0948\u091f
p3472
tp3473
sS'baton'
p3474
(S'bAwoM'
p3475
V\u092c\u093e\u0924\u094b\u0902
p3476
tp3477
sS'daalo'
p3478
(S'dAlo'
p3479
V\u0921\u093e\u0932\u094b
p3480
tp3481
sS'kyoki'
p3482
(S'kyoMki'
p3483
V\u0915\u094d\u092f\u094b\u0902\u0915\u093f
p3484
tp3485
sS'daala'
p3486
(S'dAlA'
p3487
V\u0921\u093e\u0932\u093e
p3488
tp3489
sS'fursat'
p3490
(S'Pursawa'
p3491
V\u092b\u0941\u0930\u094d\u0938\u0924
p3492
tp3493
sS'todenge'
p3494
(S'wodZeMge'
p3495
V\u0924\u094b\u0921\u093c\u0947\u0902\u0917\u0947
p3496
tp3497
sS'aakhiri'
p3498
(S'aMgarI'
p3499
V\u0905\u0902\u0917\u0930\u0940
p3500
tp3501
sS'bdiya'
p3502
(S'baDZiyA'
p3503
V\u092c\u0922\u093c\u093f\u092f\u093e
p3504
tp3505
sS'llo'
p3506
(S'lo'
p3507
V\u0932\u094b
p3508
tp3509
sS'isme'
p3510
(S'isameM'
p3511
V\u0907\u0938\u092e\u0947\u0902
p3512
tp3513
sS'haar'
p3514
(S'hAyara'
p3515
V\u0939\u093e\u092f\u0930
p3516
tp3517
sS'dhamki'
p3518
(S'XamakI'
p3519
V\u0927\u092e\u0915\u0940
p3520
tp3521
sS'aapse'
p3522
(S'Apase'
p3523
V\u0906\u092a\u0938\u0947
p3524
tp3525
sS'haan'
p3526
(S'hAnana'
p3527
V\u0939\u093e\u0928\u0928
p3528
tp3529
sS'haal'
p3530
(S'hAla'
p3531
V\u0939\u093e\u0932
p3532
tp3533
sS'pass'
p3534
(S'pAsa'
p3535
V\u092a\u093e\u0938
p3536
tp3537
sS'waale'
p3538
(S'vAale'
p3539
V\u0935\u093e\u0905\u0932\u0947
p3540
tp3541
sS'abb'
p3542
(S'aba'
p3543
V\u0905\u092c
p3544
tp3545
sS'uthao'
p3546
(S'uTAo'
p3547
V\u0909\u0920\u093e\u0913
p3548
tp3549
sS'abe'
p3550
(S'aBI'
p3551
V\u0905\u092d\u0940
p3552
tp3553
sS'karne'
p3554
(S'karane'
p3555
V\u0915\u0930\u0928\u0947
p3556
tp3557
sS'sun'
p3558
(S'suna'
p3559
V\u0938\u0941\u0928
p3560
tp3561
sS'mushaq'
p3562
(S'mukkA'
p3563
V\u092e\u0941\u0915\u094d\u0915\u093e
p3564
tp3565
sS'karna'
p3566
(S'karanA'
p3567
V\u0915\u0930\u0928\u093e
p3568
tp3569
sS'aby'
p3570
(S'aBI'
p3571
V\u0905\u092d\u0940
p3572
tp3573
sS'kyaa'
p3574
(S'kyArA'
p3575
V\u0915\u094d\u092f\u093e\u0930\u093e
p3576
tp3577
sS'gunah'
p3578
(S'gunAha'
p3579
V\u0917\u0941\u0928\u093e\u0939
p3580
tp3581
sS'valo'
p3582
(S'vAloM'
p3583
V\u0935\u093e\u0932\u094b\u0902
p3584
tp3585
sS'hasi'
p3586
(S'hAsya'
p3587
V\u0939\u093e\u0938\u094d\u092f
p3588
tp3589
sS'vala'
p3590
(S'vAlA'
p3591
V\u0935\u093e\u0932\u093e
p3592
tp3593
sS'inhen'
p3594
(S'inheM'
p3595
V\u0907\u0928\u094d\u0939\u0947\u0902
p3596
tp3597
sS'tjme'
p3598
(S'tjme'
p3599
V\u091f\u094d\u091c\u094d\u092e\u0947
p3600
tp3601
sS'vale'
p3602
(S'vAle'
p3603
V\u0935\u093e\u0932\u0947
p3604
tp3605
sS'doobenge'
p3606
(S'dUbeMge'
p3607
V\u0921\u0942\u092c\u0947\u0902\u0917\u0947
p3608
tp3609
sS'ganda'
p3610
(S'gaMxA'
p3611
V\u0917\u0902\u0926\u093e
p3612
tp3613
sS'jayega'
p3614
(S'jAyegA'
p3615
V\u091c\u093e\u092f\u0947\u0917\u093e
p3616
tp3617
sS'jati'
p3618
(S'jAwI'
p3619
V\u091c\u093e\u0924\u0940
p3620
tp3621
sS'jayege'
p3622
(S'jAyeMge'
p3623
V\u091c\u093e\u092f\u0947\u0902\u0917\u0947
p3624
tp3625
sS'jate'
p3626
(S'jAwe'
p3627
V\u091c\u093e\u0924\u0947
p3628
tp3629
sS'jayegi'
p3630
(S'jAyegI'
p3631
V\u091c\u093e\u092f\u0947\u0917\u0940
p3632
tp3633
sS'jata'
p3634
(S'jAwA'
p3635
V\u091c\u093e\u0924\u093e
p3636
tp3637
sS'jiske'
p3638
(S'jisake'
p3639
V\u091c\u093f\u0938\u0915\u0947
p3640
tp3641
sS'samaj'
p3642
(S'samAja'
p3643
V\u0938\u092e\u093e\u091c
p3644
tp3645
sS'nazaare'
p3646
(S'najZAre'
p3647
V\u0928\u091c\u093c\u093e\u0930\u0947
p3648
tp3649
sS'hoga'
p3650
(S'hogA'
p3651
V\u0939\u094b\u0917\u093e
p3652
tp3653
sS'hogi'
p3654
(S'hogI'
p3655
V\u0939\u094b\u0917\u0940
p3656
tp3657
sS'padega'
p3658
(S'padZegA'
p3659
V\u092a\u0921\u093c\u0947\u0917\u093e
p3660
tp3661
sS'tumhari'
p3662
(S'wumhArI'
p3663
V\u0924\u0941\u092e\u094d\u0939\u093e\u0930\u0940
p3664
tp3665
sS'poochna'
p3666
(S'pUCanA'
p3667
V\u092a\u0942\u091b\u0928\u093e
p3668
tp3669
sS'gaay'
p3670
(S'gAya'
p3671
V\u0917\u093e\u092f
p3672
tp3673
sS'tumhare'
p3674
(S'wumhAre'
p3675
V\u0924\u0941\u092e\u094d\u0939\u093e\u0930\u0947
p3676
tp3677
sS'ladki'
p3678
(S'ladZakI'
p3679
V\u0932\u0921\u093c\u0915\u0940
p3680
tp3681
sS'ladko'
p3682
(S'ladZakoM'
p3683
V\u0932\u0921\u093c\u0915\u094b\u0902
p3684
tp3685
sS'khas'
p3686
(S'KAsa'
p3687
V\u0916\u093e\u0938
p3688
tp3689
sS'ladka'
p3690
(S'ladZakA'
p3691
V\u0932\u0921\u093c\u0915\u093e
p3692
tp3693
sS'ladke'
p3694
(S'ladZake'
p3695
V\u0932\u0921\u093c\u0915\u0947
p3696
tp3697
sS'door'
p3698
(S'xUra'
p3699
V\u0926\u0942\u0930
p3700
tp3701
sS'chillate'
p3702
(S'cillAwe'
p3703
V\u091a\u093f\u0932\u094d\u0932\u093e\u0924\u0947
p3704
tp3705
sS'yaha'
p3706
(S'yaha'
p3707
V\u092f\u0939
p3708
tp3709
sS'yahi'
p3710
(S'yahI'
p3711
V\u092f\u0939\u0940
p3712
tp3713
sS'teer'
p3714
(S'wIra'
p3715
V\u0924\u0940\u0930
p3716
tp3717
sS'bajar'
p3718
(S'bAjAra'
p3719
V\u092c\u093e\u091c\u093e\u0930
p3720
tp3721
sS'bakwas'
p3722
(S'bakavAsa'
p3723
V\u092c\u0915\u0935\u093e\u0938
p3724
tp3725
sS'lkr'
p3726
(S'lakara'
p3727
V\u0932\u0915\u0930
p3728
tp3729
sS'iss'
p3730
(S'isa'
p3731
V\u0907\u0938
p3732
tp3733
sS'v'
p3734
(S'va'
p3735
V\u0935
p3736
tp3737
sS'gaa-'
p3738
(S'ga'
p3739
V\u0917
p3740
tp3741
sS'sahi'
p3742
(S'sahI'
p3743
V\u0938\u0939\u0940
p3744
tp3745
sS'satiyha'
p3746
(S'saRya'
p3747
V\u0938\u0937\u094d\u092f
p3748
tp3749
sS'puchiyo'
p3750
(S'patariyo'
p3751
V\u092a\u091f\u0930\u093f\u092f\u094b
p3752
tp3753
sS'oye'
p3754
(S'oye'
p3755
V\u0913\u092f\u0947
p3756
tp3757
sS'fr'
p3758
(S'Para'
p3759
V\u092b\u0930
p3760
tp3761
sS'barbaad'
p3762
(S'barbAxa'
p3763
V\u092c\u0930\u094d\u092c\u093e\u0926
p3764
tp3765
sS'maara'
p3766
(S'mAwrA'
p3767
V\u092e\u093e\u0924\u094d\u0930\u093e
p3768
tp3769
sS'par'
p3770
(S'para'
p3771
V\u092a\u0930
p3772
tp3773
sS'rhke'
p3774
(S'rahake'
p3775
V\u0930\u0939\u0915\u0947
p3776
tp3777
sS'a'
p3778
(g302
V\u0906
p3779
tp3780
sS'ulta'
p3781
(S'ultA'
p3782
V\u0909\u0932\u094d\u091f\u093e
p3783
tp3784
sS'doosre'
p3785
(S'xUsare'
p3786
V\u0926\u0942\u0938\u0930\u0947
p3787
tp3788
sS'maan'
p3789
(S'mAyana'
p3790
V\u092e\u093e\u092f\u0928
p3791
tp3792
sS'jyda'
p3793
(S'jyaxA'
p3794
V\u091c\u094d\u092f\u0926\u093e
p3795
tp3796
sS'behen'
p3797
(S'behena'
p3798
V\u092c\u0947\u0939\u0947\u0928
p3799
tp3800
sS'shadi'
p3801
(S'SAxI'
p3802
V\u0936\u093e\u0926\u0940
p3803
tp3804
sS'pyarr'
p3805
(S'pyAra'
p3806
V\u092a\u094d\u092f\u093e\u0930
p3807
tp3808
sS'panoooti'
p3809
(S'panoooti'
p3810
V\u092a\u0928\u094b\u0913\u0913\u091f\u093f
p3811
tp3812
sS'dubara'
p3813
(S'xubArA'
p3814
V\u0926\u0941\u092c\u093e\u0930\u093e
p3815
tp3816
sS'kyuki'
p3817
(S'kyUkI'
p3818
V\u0915\u094d\u092f\u0942\u0915\u0940
p3819
tp3820
sS'letey'
p3821
(S'leweM'
p3822
V\u0932\u0947\u0924\u0947\u0902
p3823
tp3824
sS'utha'
p3825
(S'uTA'
p3826
V\u0909\u0920\u093e
p3827
tp3828
sS'phli'
p3829
(S'pahalI'
p3830
V\u092a\u0939\u0932\u0940
p3831
tp3832
sS'insaan'
p3833
(S'inasAna'
p3834
V\u0907\u0928\u0938\u093e\u0928
p3835
tp3836
sS'baap'
p3837
(S'bApa'
p3838
V\u092c\u093e\u092a
p3839
tp3840
sS'baar'
p3841
(S'bAyara'
p3842
V\u092c\u093e\u092f\u0930
p3843
tp3844
sS'baat'
p3845
(S'bArAwa'
p3846
V\u092c\u093e\u0930\u093e\u0924
p3847
tp3848
sS'phle'
p3849
(S'pahale'
p3850
V\u092a\u0939\u0932\u0947
p3851
tp3852
sS'prachar'
p3853
(S'pracAra'
p3854
V\u092a\u094d\u0930\u091a\u093e\u0930
p3855
tp3856
sS'maregi'
p3857
(S'maregI'
p3858
V\u092e\u0930\u0947\u0917\u0940
p3859
tp3860
sS'zyada'
p3861
(S'jyAxA'
p3862
V\u091c\u094d\u092f\u093e\u0926\u093e
p3863
tp3864
sS'pae'
p3865
(S'pAe'
p3866
V\u092a\u093e\u090f
p3867
tp3868
sS'yh'
p3869
(S'yaha'
p3870
V\u092f\u0939
p3871
tp3872
sS'humhe'
p3873
(S'hamahi'
p3874
V\u0939\u092e\u0939\u093f
p3875
tp3876
sS'yarrrr'
p3877
(S'yAra'
p3878
V\u092f\u093e\u0930
p3879
tp3880
sS'yo'
p3881
(S'yoM'
p3882
V\u092f\u094b\u0902
p3883
tp3884
sS'ya'
p3885
(S'yA'
p3886
V\u092f\u093e
p3887
tp3888
sS'ye'
p3889
(S'ye'
p3890
V\u092f\u0947
p3891
tp3892
sS'rehta'
p3893
(S'rahawA'
p3894
V\u0930\u0939\u0924\u093e
p3895
tp3896
sS'dedo'
p3897
(S'xexo'
p3898
V\u0926\u0947\u0926\u094b
p3899
tp3900
sS'rehti'
p3901
(S'rahawI'
p3902
V\u0930\u0939\u0924\u0940
p3903
tp3904
sS'yr'
p3905
(S'yra'
p3906
V\u092f\u094d\u0930
p3907
tp3908
sS'dede'
p3909
(S'deda'
p3910
V\u0921\u0947\u0921
p3911
tp3912
sS'seedha'
p3913
(S'sIXA'
p3914
V\u0938\u0940\u0927\u093e
p3915
tp3916
sS'krta'
p3917
(S'karawA'
p3918
V\u0915\u0930\u0924\u093e
p3919
tp3920
sS'krte'
p3921
(S'karawe'
p3922
V\u0915\u0930\u0924\u0947
p3923
tp3924
sS'krti'
p3925
(S'karawI'
p3926
V\u0915\u0930\u0924\u0940
p3927
tp3928
sS'kutte'
p3929
(S'kuwwe'
p3930
V\u0915\u0941\u0924\u094d\u0924\u0947
p3931
tp3932
sS'todi'
p3933
(S'wodZI'
p3934
V\u0924\u094b\u0921\u093c\u0940
p3935
tp3936
sS'abhi'
p3937
(S'abBI'
p3938
V\u0905\u092c\u094d\u092d\u0940
p3939
tp3940
sS'babaji'
p3941
(S'bAbAjI'
p3942
V\u092c\u093e\u092c\u093e\u091c\u0940
p3943
tp3944
sS'pehli'
p3945
(S'pahalI'
p3946
V\u092a\u0939\u0932\u0940
p3947
tp3948
sS'karege'
p3949
(S'kareMge'
p3950
V\u0915\u0930\u0947\u0902\u0917\u0947
p3951
tp3952
sS'pehle'
p3953
(S'pahale'
p3954
V\u092a\u0939\u0932\u0947
p3955
tp3956
sS'karega'
p3957
(S'karegA'
p3958
V\u0915\u0930\u0947\u0917\u093e
p3959
tp3960
sS'pehla'
p3961
(S'pahalA'
p3962
V\u092a\u0939\u0932\u093e
p3963
tp3964
sS'bass'
p3965
(S'bAsa'
p3966
V\u092c\u093e\u0938
p3967
tp3968
sS'ase'
p3969
(S'Ese'
p3970
V\u0910\u0938\u0947
p3971
tp3972
sS'basa'
p3973
(S'basa'
p3974
V\u092c\u0938
p3975
tp3976
sS'bhulna'
p3977
(S'BakatanA'
p3978
V\u092d\u0915\u091f\u0928\u093e
p3979
tp3980
sS'kon'
p3981
(S'kOna'
p3982
V\u0915\u094c\u0928
p3983
tp3984
sS'bhad'
p3985
(S'blada'
p3986
V\u092c\u094d\u0932\u0921
p3987
tp3988
sS'bhag'
p3989
(S'BIAga'
p3990
V\u092d\u0940\u0906\u0917
p3991
tp3992
sS'dino'
p3993
(S'xinoM'
p3994
V\u0926\u093f\u0928\u094b\u0902
p3995
tp3996
sS'bhai'
p3997
(S'bahAI'
p3998
V\u092c\u0939\u093e\u0908
p3999
tp4000
sS'bhav'
p4001
(S'bahAva'
p4002
V\u092c\u0939\u093e\u0935
p4003
tp4004
sS'bhar'
p4005
(S'bahAra'
p4006
V\u092c\u0939\u093e\u0930
p4007
tp4008
sS'dono'
p4009
(S'xonoM'
p4010
V\u0926\u094b\u0928\u094b\u0902
p4011
tp4012
sS'samjhta'
p4013
(S'samaJawA'
p4014
V\u0938\u092e\u091d\u0924\u093e
p4015
tp4016
sS'koi'
p4017
(S'koI'
p4018
V\u0915\u094b\u0908
p4019
tp4020
sS'rakha'
p4021
(S'raKA'
p4022
V\u0930\u0916\u093e
p4023
tp4024
sS'"'
p4025
(g4025
V"
p4026
tp4027
sS'rakhe'
p4028
(S'raKe'
p4029
V\u0930\u0916\u0947
p4030
tp4031
sS'zindgi'
p4032
(S'jZiMxagI'
p4033
V\u091c\u093c\u093f\u0902\u0926\u0917\u0940
p4034
tp4035
sS'rakhi'
p4036
(S'rAKI'
p4037
V\u0930\u093e\u0916\u0940
p4038
tp4039
sS'koe'
p4040
(S'koI'
p4041
V\u0915\u094b\u0908
p4042
tp4043
sS'hote'
p4044
(S'howe'
p4045
V\u0939\u094b\u0924\u0947
p4046
tp4047
sS'hota'
p4048
(S'howA'
p4049
V\u0939\u094b\u0924\u093e
p4050
tp4051
sS'banane'
p4052
(S'banAne'
p4053
V\u092c\u0928\u093e\u0928\u0947
p4054
tp4055
sS'banana'
p4056
(S'banAnA'
p4057
V\u092c\u0928\u093e\u0928\u093e
p4058
tp4059
sS'hoti'
p4060
(S'howI'
p4061
V\u0939\u094b\u0924\u0940
p4062
tp4063
sS'akal'
p4064
(S'akAla'
p4065
V\u0905\u0915\u093e\u0932
p4066
tp4067
sS'paapa'
p4068
(S'pApA'
p4069
V\u092a\u093e\u092a\u093e
p4070
tp4071
sS'pichle'
p4072
(S'piCale'
p4073
V\u092a\u093f\u091b\u0932\u0947
p4074
tp4075
sS'mmme'
p4076
(S'mammaNa'
p4077
V\u092e\u092e\u094d\u092e\u0923
p4078
tp4079
sS'akar'
p4080
(S'AkAra'
p4081
V\u0906\u0915\u093e\u0930
p4082
tp4083
sS'b'
p4084
(S'ba'
p4085
V\u092c
p4086
tp4087
sS'aaa'
p4088
(g302
V\u0906
p4089
tp4090
sS'dta'
p4091
(S'datA'
p4092
V\u0921\u091f\u093e
p4093
tp4094
sS'sth'
p4095
(S'sawaha'
p4096
V\u0938\u0924\u0939
p4097
tp4098
sS'aaj'
p4099
(S'AnAja'
p4100
V\u0906\u0928\u093e\u091c
p4101
tp4102
sS'aap'
p4103
(S'Apa'
p4104
V\u0906\u092a
p4105
tp4106
sS'fuche'
p4107
(S'Pazse'
p4108
V\u092b\u0901\u0938\u0947
p4109
tp4110
sS'bhi'
p4111
(S'bahI'
p4112
V\u092c\u0939\u0940
p4113
tp4114
sS'humari'
p4115
(S'hamArI'
p4116
V\u0939\u092e\u093e\u0930\u0940
p4117
tp4118
sS'karu'
p4119
(S'karU'
p4120
V\u0915\u0930\u0942
p4121
tp4122
sS'aadhe'
p4123
(g302
V\u0906
p4124
tp4125
sS'humare'
p4126
(S'hamAre'
p4127
V\u0939\u092e\u093e\u0930\u0947
p4128
tp4129
sS'gaana'
p4130
(S'gADZanA'
p4131
V\u0917\u093e\u0922\u093c\u0928\u093e
p4132
tp4133
sS'hoomn'
p4134
(S'hUmana'
p4135
V\u0939\u0942\u092e\u0928
p4136
tp4137
sS'padte'
p4138
(S'padZawe'
p4139
V\u092a\u0921\u093c\u0924\u0947
p4140
tp4141
sS'padta'
p4142
(S'padZawA'
p4143
V\u092a\u0921\u093c\u0924\u093e
p4144
tp4145
sS'agaye'
p4146
(S'a5'
p4147
V\u09055
p4148
tp4149
sS'galo'
p4150
(S'Galo'
p4151
V\u0918\u0932\u094b
p4152
tp4153
sS'karo'
p4154
(S'karo'
p4155
V\u0915\u0930\u094b
p4156
tp4157
sS'padti'
p4158
(S'padZawI'
p4159
V\u092a\u0921\u093c\u0924\u0940
p4160
tp4161
sS'lie'
p4162
(S'lie'
p4163
V\u0932\u093f\u090f
p4164
tp4165
sS'dhoka'
p4166
(S'XoKA'
p4167
V\u0927\u094b\u0916\u093e
p4168
tp4169
sS'lia'
p4170
(S'liyA'
p4171
V\u0932\u093f\u092f\u093e
p4172
tp4173
sS'lio'
p4174
(S'liva'
p4175
V\u0932\u093f\u0935
p4176
tp4177
sS'padhne'
p4178
(S'paDZane'
p4179
V\u092a\u0922\u093c\u0928\u0947
p4180
tp4181
sS'liy'
p4182
(S'lie'
p4183
V\u0932\u093f\u090f
p4184
tp4185
sS'hga'
p4186
(S'hOYgA'
p4187
V\u0939\u0949\u0917\u093e
p4188
tp4189
sS'janam'
p4190
(S'janama'
p4191
V\u091c\u0928\u092e
p4192
tp4193
sS'kab'
p4194
(S'kaba'
p4195
V\u0915\u092c
p4196
tp4197
sS'amal'
p4198
(S'amala'
p4199
V\u0905\u092e\u0932
p4200
tp4201
sS'kam'
p4202
(S'kAma'
p4203
V\u0915\u093e\u092e
p4204
tp4205
sS'kal'
p4206
(S'kAla'
p4207
V\u0915\u093e\u0932
p4208
tp4209
sS'rhi'
p4210
(S'rahI'
p4211
V\u0930\u0939\u0940
p4212
tp4213
sS'kar'
p4214
(S'kara'
p4215
V\u0915\u0930
p4216
tp4217
sS'rho'
p4218
(S'raho'
p4219
V\u0930\u0939\u094b
p4220
tp4221
sS'rha'
p4222
(S'rahA'
p4223
V\u0930\u0939\u093e
p4224
tp4225
sS'apki'
p4226
(S'ApakI'
p4227
V\u0906\u092a\u0915\u0940
p4228
tp4229
sS'rhe'
p4230
(S'rahe'
p4231
V\u0930\u0939\u0947
p4232
tp4233
sS'apko'
p4234
(S'Apako'
p4235
V\u0906\u092a\u0915\u094b
p4236
tp4237
sS'kb'
p4238
(S'ke'
p4239
V\u0915\u0947
p4240
tp4241
sS'ka'
p4242
(S'kA'
p4243
V\u0915\u093e
p4244
tp4245
sS'ke'
p4246
(S'ke'
p4247
V\u0915\u0947
p4248
tp4249
sS'wajeh'
p4250
(S'vajaha'
p4251
V\u0935\u091c\u0939
p4252
tp4253
sS'ki'
p4254
(S'kI'
p4255
V\u0915\u0940
p4256
tp4257
sS'ko'
p4258
(S'ko'
p4259
V\u0915\u094b
p4260
tp4261
sS'km'
p4262
(S'kama'
p4263
V\u0915\u092e
p4264
tp4265
sS'kr'
p4266
(S'kara'
p4267
V\u0915\u0930
p4268
tp4269
sS'sabko'
p4270
(S'sabako'
p4271
V\u0938\u092c\u0915\u094b
p4272
tp4273
sS'ku'
p4274
(S'ko'
p4275
V\u0915\u094b
p4276
tp4277
sS'ky'
p4278
(S'kI'
p4279
V\u0915\u0940
p4280
tp4281
sS'raat'
p4282
(S'rAita'
p4283
V\u0930\u093e\u0907\u091f
p4284
tp4285
sS'sabke'
p4286
(S'sabake'
p4287
V\u0938\u092c\u0915\u0947
p4288
tp4289
sS'aage'
p4290
(S'Age'
p4291
V\u0906\u0917\u0947
p4292
tp4293
sS'booza'
p4294
(S'baztA'
p4295
V\u092c\u0901\u091f\u093e
p4296
tp4297
sS'dungiya'
p4298
(S'XuMgiyA'
p4299
V\u0927\u0941\u0902\u0917\u093f\u092f\u093e
p4300
tp4301
sS'hoshiyar'
p4302
(S'hoSiyAra'
p4303
V\u0939\u094b\u0936\u093f\u092f\u093e\u0930
p4304
tp4305
sS'kharch'
p4306
(S'Karca'
p4307
V\u0916\u0930\u094d\u091a
p4308
tp4309
sS'upar'
p4310
(S'Upara'
p4311
V\u090a\u092a\u0930
p4312
tp4313
sS'jindgi'
p4314
(S'jiMxagI'
p4315
V\u091c\u093f\u0902\u0926\u0917\u0940
p4316
tp4317
sS'kadr'
p4318
(S'kaxara'
p4319
V\u0915\u0926\u0930
p4320
tp4321
sS'uriya'
p4322
(S'OrEyA'
p4323
V\u0914\u0930\u0948\u092f\u093e
p4324
tp4325
sS'pareshaan'
p4326
(S'pareSAna'
p4327
V\u092a\u0930\u0947\u0936\u093e\u0928
p4328
tp4329
sS'mein'
p4330
(S'mEina'
p4331
V\u092e\u0948\u0907\u0928
p4332
tp4333
sS'shootegi'
p4334
(S'shootegi'
p4335
V\u0938\u094d\u0939\u094b\u0913\u091f\u0947\u0917\u093f
p4336
tp4337
sS'hia'
p4338
(S'hiyA'
p4339
V\u0939\u093f\u092f\u093e
p4340
tp4341
sS'aasuo'
p4342
(S'AMsuoM'
p4343
V\u0906\u0902\u0938\u0941\u0913\u0902
p4344
tp4345
sS'phr'
p4346
(S'pahara'
p4347
V\u092a\u0939\u0930
p4348
tp4349
sS'koile'
p4350
(S'koyale'
p4351
V\u0915\u094b\u092f\u0932\u0947
p4352
tp4353
sS'sanam'
p4354
(S'sanama'
p4355
V\u0938\u0928\u092e
p4356
tp4357
sS'chuki'
p4358
(S'cukI'
p4359
V\u091a\u0941\u0915\u0940
p4360
tp4361
sS'chuke'
p4362
(S'cuke'
p4363
V\u091a\u0941\u0915\u0947
p4364
tp4365
sS'chuka'
p4366
(S'cukA'
p4367
V\u091a\u0941\u0915\u093e
p4368
tp4369
sS'zarori'
p4370
(S'jararI'
p4371
V\u091c\u0930\u0930\u0940
p4372
tp4373
sS'bandhan'
p4374
(S'baMXAna'
p4375
V\u092c\u0902\u0927\u093e\u0928
p4376
tp4377
sS'ary'
p4378
(S'Arya'
p4379
V\u0906\u0930\u094d\u092f
p4380
tp4381
sS'jada'
p4382
(S'jAxA'
p4383
V\u091c\u093e\u0926\u093e
p4384
tp4385
sS'mitha'
p4386
(S'mITA'
p4387
V\u092e\u0940\u0920\u093e
p4388
tp4389
sS'bare'
p4390
(S'bAre'
p4391
V\u092c\u093e\u0930\u0947
p4392
tp4393
sS'are'
p4394
(S'are'
p4395
V\u0905\u0930\u0947
p4396
tp4397
sS'2din'
p4398
(S'2jI'
p4399
V2\u091c\u0940
p4400
tp4401
sS'laat'
p4402
(S'lAita'
p4403
V\u0932\u093e\u0907\u091f
p4404
tp4405
sS'dosti'
p4406
(S'xoswI'
p4407
V\u0926\u094b\u0938\u094d\u0924\u0940
p4408
tp4409
sS'dosto'
p4410
(S'xoswoM'
p4411
V\u0926\u094b\u0938\u094d\u0924\u094b\u0902
p4412
tp4413
sS'tjhse'
p4414
(S'wuJase'
p4415
V\u0924\u0941\u091d\u0938\u0947
p4416
tp4417
sS'bachpan'
p4418
(S'bacapana'
p4419
V\u092c\u091a\u092a\u0928
p4420
tp4421
sS'paisa'
p4422
(S'paisA'
p4423
V\u092a\u0907\u0938\u093e
p4424
tp4425
sS'woh'
p4426
(S'voha'
p4427
V\u0935\u094b\u0939
p4428
tp4429
sS'paise'
p4430
(S'pAisa'
p4431
V\u092a\u093e\u0907\u0938
p4432
tp4433
sS'paiso'
p4434
(S'pAisa'
p4435
V\u092a\u093e\u0907\u0938
p4436
tp4437
sS'likha'
p4438
(S'liKA'
p4439
V\u0932\u093f\u0916\u093e
p4440
tp4441
sS'khatam'
p4442
(S'KZawama'
p4443
V\u0916\u093c\u0924\u092e
p4444
tp4445
sS'maarti'
p4446
(S'mArawI'
p4447
V\u092e\u093e\u0930\u0924\u0940
p4448
tp4449
sS'pagal'
p4450
(S'pAgala'
p4451
V\u092a\u093e\u0917\u0932
p4452
tp4453
sS'c'
p4454
(S'ka'
p4455
V\u0915
p4456
tp4457
sS'sadai'
p4458
(S'sabA'
p4459
V\u0938\u092c\u093e
p4460
tp4461
sS'saanse'
p4462
(S'sabase'
p4463
V\u0938\u092c\u0938\u0947
p4464
tp4465
sS'kilaste'
p4466
(S'kasawe'
p4467
V\u0915\u0938\u0924\u0947
p4468
tp4469
sS'khilaf'
p4470
(S'KilAPa'
p4471
V\u0916\u093f\u0932\u093e\u092b
p4472
tp4473
sS'likhi'
p4474
(S'liKI'
p4475
V\u0932\u093f\u0916\u0940
p4476
tp4477
sS'samjha'
p4478
(S'samaJA'
p4479
V\u0938\u092e\u091d\u093e
p4480
tp4481
sS'thok'
p4482
(S'Woka'
p4483
V\u0925\u094b\u0915
p4484
tp4485
sS'hamesha'
p4486
(S'hameSA'
p4487
V\u0939\u092e\u0947\u0936\u093e
p4488
tp4489
sS'pde'
p4490
(S'padZe'
p4491
V\u092a\u0921\u093c\u0947
p4492
tp4493
sS'andhere'
p4494
(S'aMXere'
p4495
V\u0905\u0902\u0927\u0947\u0930\u0947
p4496
tp4497
sS'loat'
p4498
(S'lota'
p4499
V\u0932\u094b\u091f
p4500
tp4501
sS'ch***yapa'
p4502
(S'ch***yapa'
p4503
V\u091a\u094d\u0939\u094d***\u092f\u092a
p4504
tp4505
sS'pr'
p4506
(S'para'
p4507
V\u092a\u0930
p4508
tp4509
sS'karlo'
p4510
(S'kArlo'
p4511
V\u0915\u093e\u0930\u094d\u0932\u094b
p4512
tp4513
sS'dum'
p4514
(S'xama'
p4515
V\u0926\u092e
p4516
tp4517
sS'usko'
p4518
(S'usako'
p4519
V\u0909\u0938\u0915\u094b
p4520
tp4521
sS'uska'
p4522
(S'usakA'
p4523
V\u0909\u0938\u0915\u093e
p4524
tp4525
sS'chle'
p4526
(S'cale'
p4527
V\u091a\u0932\u0947
p4528
tp4529
sS'karle'
p4530
(S'karale'
p4531
V\u0915\u0930\u0932\u0947
p4532
tp4533
sS'pd'
p4534
(S'padZa'
p4535
V\u092a\u0921\u093c
p4536
tp4537
sS'pe'
p4538
(S'pe'
p4539
V\u092a\u0947
p4540
tp4541
sS'dur'
p4542
(S'xUra'
p4543
V\u0926\u0942\u0930
p4544
tp4545
sS'pi'
p4546
(S'pI'
p4547
V\u092a\u0940
p4548
tp4549
sS'aakar'
p4550
(S'Akara'
p4551
V\u0906\u0915\u0930
p4552
tp4553
sS'yakeen'
p4554
(S'yakIna'
p4555
V\u092f\u0915\u0940\u0928
p4556
tp4557
sS'gal'
p4558
(S'gAla'
p4559
V\u0917\u093e\u0932
p4560
tp4561
sS'muje'
p4562
(S'muJe'
p4563
V\u092e\u0941\u091d\u0947
p4564
tp4565
sS'gai'
p4566
(S'gaI'
p4567
V\u0917\u0908
p4568
tp4569
sS'gae'
p4570
(S'gae'
p4571
V\u0917\u090f
p4572
tp4573
sS'bihario'
p4574
(S'bihAriyo'
p4575
V\u092c\u093f\u0939\u093e\u0930\u093f\u092f\u094b
p4576
tp4577
sS'phuch'
p4578
(S'pahuMca'
p4579
V\u092a\u0939\u0941\u0902\u091a
p4580
tp4581
sS'pyaar'
p4582
(S'pyAra'
p4583
V\u092a\u094d\u092f\u093e\u0930
p4584
tp4585
sS'kare'
p4586
(S'kare'
p4587
V\u0915\u0930\u0947
p4588
tp4589
sS'isliye'
p4590
(S'isaliye'
p4591
V\u0907\u0938\u0932\u093f\u092f\u0947
p4592
tp4593
sS'mujhse'
p4594
(S'muJase'
p4595
V\u092e\u0941\u091d\u0938\u0947
p4596
tp4597
sS'bht'
p4598
(S'bahawa'
p4599
V\u092c\u0939\u0924
p4600
tp4601
sS'dunia'
p4602
(S'xuniyA'
p4603
V\u0926\u0941\u0928\u093f\u092f\u093e
p4604
tp4605
sS'dimg'
p4606
(S'diggI'
p4607
V\u0921\u093f\u0917\u094d\u0917\u0940
p4608
tp4609
sS'wapas'
p4610
(S'vApasa'
p4611
V\u0935\u093e\u092a\u0938
p4612
tp4613
sS'pahen'
p4614
(S'pAhana'
p4615
V\u092a\u093e\u0939\u0928
p4616
tp4617
sS'usey'
p4618
(S'useV'
p4619
V\u0909\u0938\u0946
p4620
tp4621
sS'bhartiya'
p4622
(S'BArawIya'
p4623
V\u092d\u093e\u0930\u0924\u0940\u092f
p4624
tp4625
sS'laundiya'
p4626
(S'lIdiyA'
p4627
V\u0932\u0940\u0921\u093f\u092f\u093e
p4628
tp4629
sS'y'
p4630
(S'ya'
p4631
V\u092f
p4632
tp4633
sS'kewal'
p4634
(S'kevala'
p4635
V\u0915\u0947\u0935\u0932
p4636
tp4637
sS'cheez'
p4638
(S'cIjZa'
p4639
V\u091a\u0940\u091c\u093c
p4640
tp4641
sS'pahali'
p4642
(S'pahalI'
p4643
V\u092a\u0939\u0932\u0940
p4644
tp4645
sS'chore'
p4646
(S'corI'
p4647
V\u091a\u094b\u0930\u0940
p4648
tp4649
sS'bhala'
p4650
(S'bahAla'
p4651
V\u092c\u0939\u093e\u0932
p4652
tp4653
sS'bhale'
p4654
(S'bahAla'
p4655
V\u092c\u0939\u093e\u0932
p4656
tp4657
sS'chori'
p4658
(S'corI'
p4659
V\u091a\u094b\u0930\u0940
p4660
tp4661
sS'rulane'
p4662
(S'rUlAne'
p4663
V\u0930\u0942\u0932\u093e\u0928\u0947
p4664
tp4665
sS'jhand'
p4666
(S'JAMda'
p4667
V\u091d\u093e\u0902\u0921
p4668
tp4669
sS'jhank'
p4670
(S'JAMka'
p4671
V\u091d\u093e\u0902\u0915
p4672
tp4673
sS'manna'
p4674
(S'mAnanA'
p4675
V\u092e\u093e\u0928\u0928\u093e
p4676
tp4677
sS'bin'
p4678
(S'bina'
p4679
V\u092c\u093f\u0928
p4680
tp4681
sS'deti'
p4682
(S'xewI'
p4683
V\u0926\u0947\u0924\u0940
p4684
tp4685
sS'khul'
p4686
(S'Kula'
p4687
V\u0916\u0941\u0932
p4688
tp4689
sS'khatm'
p4690
(S'Kawma'
p4691
V\u0916\u0924\u094d\u092e
p4692
tp4693
sS'bihari'
p4694
(S'bihArI'
p4695
V\u092c\u093f\u0939\u093e\u0930\u0940
p4696
tp4697
sS'khud'
p4698
(S'Kuxa'
p4699
V\u0916\u0941\u0926
p4700
tp4701
sS'chayiye'
p4702
(S'CAMte'
p4703
V\u091b\u093e\u0902\u091f\u0947
p4704
tp4705
sS'kasi'
p4706
(S'KAsI'
p4707
V\u0916\u093e\u0938\u0940
p4708
tp4709
sS'krde'
p4710
(S'karaxe'
p4711
V\u0915\u0930\u0926\u0947
p4712
tp4713
sS'kase'
p4714
(S'kEse'
p4715
V\u0915\u0948\u0938\u0947
p4716
tp4717
sS'bande'
p4718
(S'bAMXe'
p4719
V\u092c\u093e\u0902\u0927\u0947
p4720
tp4721
sS'khus'
p4722
(S'KuSa'
p4723
V\u0916\u0941\u0936
p4724
tp4725
sS'badiya'
p4726
(S'baDZiyA'
p4727
V\u092c\u0922\u093c\u093f\u092f\u093e
p4728
tp4729
sS'ladkian'
p4730
(S'ladakiyA'
p4731
V\u0932\u0921\u0915\u093f\u092f\u093e
p4732
tp4733
sS'hjar'
p4734
(S'hajAra'
p4735
V\u0939\u091c\u093e\u0930
p4736
tp4737
sS'bahar'
p4738
(S'bAhara'
p4739
V\u092c\u093e\u0939\u0930
p4740
tp4741
sS'sunao'
p4742
(S'sunAo'
p4743
V\u0938\u0941\u0928\u093e\u0913
p4744
tp4745
sS'chinne'
p4746
(S'CInane'
p4747
V\u091b\u0940\u0928\u0928\u0947
p4748
tp4749
sS'shabd'
p4750
(S'Sabxa'
p4751
V\u0936\u092c\u094d\u0926
p4752
tp4753
sS'lathi'
p4754
(S'lATI'
p4755
V\u0932\u093e\u0920\u0940
p4756
tp4757
sS'bach'
p4758
(S'baca'
p4759
V\u092c\u091a
p4760
tp4761
sS'bahaduri'
p4762
(S'bahAxurI'
p4763
V\u092c\u0939\u093e\u0926\u0941\u0930\u0940
p4764
tp4765
sS'parche'
p4766
(S'parce'
p4767
V\u092a\u0930\u094d\u091a\u0947
p4768
tp4769
sS'parcha'
p4770
(S'parcA'
p4771
V\u092a\u0930\u094d\u091a\u093e
p4772
tp4773
sS'ekdam'
p4774
(S'ekaxama'
p4775
V\u090f\u0915\u0926\u092e
p4776
tp4777
sS'saal'
p4778
(S'sAyala'
p4779
V\u0938\u093e\u092f\u0932
p4780
tp4781
sS'pee'
p4782
(S'pI'
p4783
V\u092a\u0940
p4784
tp4785
sS'lgoge'
p4786
(S'lagage'
p4787
V\u0932\u0917\u0917\u0947
p4788
tp4789
sS'bd'
p4790
(S'baDZa'
p4791
V\u092c\u0922\u093c
p4792
tp4793
sS'be'
p4794
(S'BI'
p4795
V\u092d\u0940
p4796
tp4797
sS'nahane'
p4798
(S'nahAne'
p4799
V\u0928\u0939\u093e\u0928\u0947
p4800
tp4801
sS'bc'
p4802
(S'ba'
p4803
V\u092c
p4804
tp4805
sS'bn'
p4806
(S'bana'
p4807
V\u092c\u0928
p4808
tp4809
sS'bh'
p4810
(S'baha'
p4811
V\u092c\u0939
p4812
tp4813
sS'bi'
p4814
(S'BI'
p4815
V\u092d\u0940
p4816
tp4817
sS'uff'
p4818
(S'uPPa'
p4819
V\u0909\u092b\u094d\u092b
p4820
tp4821
sS'bt'
p4822
(S'bata'
p4823
V\u092c\u091f
p4824
tp4825
sS'achi'
p4826
(S'acI'
p4827
V\u0905\u091a\u0940
p4828
tp4829
sS'br'
p4830
(S'bara'
p4831
V\u092c\u0930
p4832
tp4833
sS'bs'
p4834
(S'basa'
p4835
V\u092c\u0938
p4836
tp4837
sS'ache'
p4838
(S'Ace'
p4839
V\u0906\u091a\u0947
p4840
tp4841
sS'ijjat'
p4842
(S'ijjawa'
p4843
V\u0907\u091c\u094d\u091c\u0924
p4844
tp4845
sS'jeeta'
p4846
(S'jIwA'
p4847
V\u091c\u0940\u0924\u093e
p4848
tp4849
sS'acha'
p4850
(S'aCA'
p4851
V\u0905\u091b\u093e
p4852
tp4853
sS'anath'
p4854
(S'anAWa'
p4855
V\u0905\u0928\u093e\u0925
p4856
tp4857
sS'padai'
p4858
(S'paDZAI'
p4859
V\u092a\u0922\u093c\u093e\u0908
p4860
tp4861
sS'kabhi'
p4862
(S'kaBI'
p4863
V\u0915\u092d\u0940
p4864
tp4865
sS'krva'
p4866
(S'karavA'
p4867
V\u0915\u0930\u0935\u093e
p4868
tp4869
sS'yehi'
p4870
(S'yahI'
p4871
V\u092f\u0939\u0940
p4872
tp4873
sS'aajkal'
p4874
(S'Ajakara'
p4875
V\u0906\u091c\u0915\u0930
p4876
tp4877
sS'sake'
p4878
(S'sake'
p4879
V\u0938\u0915\u0947
p4880
tp4881
sS'hadapne'
p4882
(S'hadZapane'
p4883
V\u0939\u0921\u093c\u092a\u0928\u0947
p4884
tp4885
sS'tuj'
p4886
(S'wuJa'
p4887
V\u0924\u0941\u091d
p4888
tp4889
sS'thodena'
p4890
(S'WodZA'
p4891
V\u0925\u094b\u0921\u093c\u093e
p4892
tp4893
sS'dhkan'
p4894
(S'XaMsa'
p4895
V\u0927\u0902\u0938
p4896
tp4897
sS'neki'
p4898
(S'nekI'
p4899
V\u0928\u0947\u0915\u0940
p4900
tp4901
sS'lenge'
p4902
(S'leMge'
p4903
V\u0932\u0947\u0902\u0917\u0947
p4904
tp4905
sS'wrna'
p4906
(S'varanA'
p4907
V\u0935\u0930\u0928\u093e
p4908
tp4909
sS'gali'
p4910
(S'gAlI'
p4911
V\u0917\u093e\u0932\u0940
p4912
tp4913
sS'lengi'
p4914
(S'leMgI'
p4915
V\u0932\u0947\u0902\u0917\u0940
p4916
tp4917
sS'soch'
p4918
(S'soca'
p4919
V\u0938\u094b\u091a
p4920
tp4921
sS'milna'
p4922
(S'milanA'
p4923
V\u092e\u093f\u0932\u0928\u093e
p4924
tp4925
sS'milne'
p4926
(S'milane'
p4927
V\u092e\u093f\u0932\u0928\u0947
p4928
tp4929
sS'reet'
p4930
(S'reta'
p4931
V\u0930\u0947\u091f
p4932
tp4933
sS'varshik'
p4934
(S'vArRika'
p4935
V\u0935\u093e\u0930\u094d\u0937\u093f\u0915
p4936
tp4937
sS'chodkr'
p4938
(S'CodZakara'
p4939
V\u091b\u094b\u0921\u093c\u0915\u0930
p4940
tp4941
sS'bakwaas'
p4942
(S'biSvAsa'
p4943
V\u092c\u093f\u0936\u094d\u0935\u093e\u0938
p4944
tp4945
sS'us'
p4946
(S'usa'
p4947
V\u0909\u0938
p4948
tp4949
sS'un'
p4950
(S'una'
p4951
V\u0909\u0928
p4952
tp4953
sS'kahan'
p4954
(S'kahAM'
p4955
V\u0915\u0939\u093e\u0902
p4956
tp4957
sS'khaate'
p4958
(S'KAswe'
p4959
V\u0916\u093e\u0938\u094d\u0924\u0947
p4960
tp4961
sS'chai'
p4962
(S'BAI'
p4963
V\u092d\u093e\u0908
p4964
tp4965
sS'bahiya'
p4966
(S'baMWiyA'
p4967
V\u092c\u0902\u0925\u093f\u092f\u093e
p4968
tp4969
sS'maja'
p4970
(S'majA'
p4971
V\u092e\u091c\u093e
p4972
tp4973
sS'naseeb'
p4974
(S'nasIba'
p4975
V\u0928\u0938\u0940\u092c
p4976
tp4977
sS'lye'
p4978
(S'laya'
p4979
V\u0932\u092f
p4980
tp4981
sS'chap'
p4982
(S'CApa'
p4983
V\u091b\u093e\u092a
p4984
tp4985
sS'bajwaenge'
p4986
(S'bacAeMge'
p4987
V\u092c\u091a\u093e\u090f\u0902\u0917\u0947
p4988
tp4989
sS'lyo'
p4990
(S'lyU'
p4991
V\u0932\u094d\u092f\u0942
p4992
tp4993
sS'kamau'
p4994
(S'kamAU'
p4995
V\u0915\u092e\u093e\u090a
p4996
tp4997
sS'naa'
p4998
(S'nAnA'
p4999
V\u0928\u093e\u0928\u093e
p5000
tp5001
sS'bijli'
p5002
(S'bijalI'
p5003
V\u092c\u093f\u091c\u0932\u0940
p5004
tp5005
sS'shaadi'
p5006
(S'SAxI'
p5007
V\u0936\u093e\u0926\u0940
p5008
tp5009
sS'isiliye'
p5010
(S'isIliye'
p5011
V\u0907\u0938\u0940\u0932\u093f\u092f\u0947
p5012
tp5013
sS'jabki'
p5014
(S'jabaki'
p5015
V\u091c\u092c\u0915\u093f
p5016
tp5017
sS'nam'
p5018
(S'nAma'
p5019
V\u0928\u093e\u092e
p5020
tp5021
sS'raina'
p5022
(S'rAina'
p5023
V\u0930\u093e\u0907\u0928
p5024
tp5025
sS'jagah'
p5026
(S'jagaha'
p5027
V\u091c\u0917\u0939
p5028
tp5029
sS'lena'
p5030
(S'lenA'
p5031
V\u0932\u0947\u0928\u093e
p5032
tp5033
sS'dala'
p5034
(S'dAlA'
p5035
V\u0921\u093e\u0932\u093e
p5036
tp5037
sS'pujari'
p5038
(S'pujArI'
p5039
V\u092a\u0941\u091c\u093e\u0930\u0940
p5040
tp5041
sS'sikkon'
p5042
(S'sikkoM'
p5043
V\u0938\u093f\u0915\u094d\u0915\u094b\u0902
p5044
tp5045
sS'papa'
p5046
(S'pApA'
p5047
V\u092a\u093e\u092a\u093e
p5048
tp5049
sS'batani'
p5050
(S'bawAnI'
p5051
V\u092c\u0924\u093e\u0928\u0940
p5052
tp5053
sS'btayega'
p5054
(S'bawAyegA'
p5055
V\u092c\u0924\u093e\u092f\u0947\u0917\u093e
p5056
tp5057
sS'batana'
p5058
(S'bawAnA'
p5059
V\u092c\u0924\u093e\u0928\u093e
p5060
tp5061
sS'jaisi'
p5062
(S'jAyasI'
p5063
V\u091c\u093e\u092f\u0938\u0940
p5064
tp5065
sS'e'
p5066
(g5066
V\u090f
p5067
tp5068
sS'jaisa'
p5069
(S'jafsa'
p5070
V\u091c\u0919\u094d\u0938
p5071
tp5072
sS'lagwaenge'
p5073
(S'lagAeMge'
p5074
V\u0932\u0917\u093e\u090f\u0902\u0917\u0947
p5075
tp5076
sS'jaise'
p5077
(S'jaise'
p5078
V\u091c\u0907\u0938\u0947
p5079
tp5080
sS'tumse'
p5081
(S'wumase'
p5082
V\u0924\u0941\u092e\u0938\u0947
p5083
tp5084
sS'agr'
p5085
(S'agara'
p5086
V\u0905\u0917\u0930
p5087
tp5088
sS'essay'
p5089
(S'ekya'
p5090
V\u090f\u0915\u094d\u092f
p5091
tp5092
sS'khtm'
p5093
(S'Kawma'
p5094
V\u0916\u0924\u094d\u092e
p5095
tp5096
sS'khte'
p5097
(S'kahawe'
p5098
V\u0915\u0939\u0924\u0947
p5099
tp5100
sS'gana'
p5101
(S'gAnA'
p5102
V\u0917\u093e\u0928\u093e
p5103
tp5104
sS'kate'
p5105
(S'kAte'
p5106
V\u0915\u093e\u091f\u0947
p5107
tp5108
sS'gi'
p5109
(S'gaI'
p5110
V\u0917\u0908
p5111
tp5112
sS'lallu'
p5113
(S'lAlU'
p5114
V\u0932\u093e\u0932\u0942
p5115
tp5116
sS'khudke'
p5117
(S'KuxakI'
p5118
V\u0916\u0941\u0926\u0915\u0940
p5119
tp5120
sS'buddhe'
p5121
(S'bOxXa'
p5122
V\u092c\u094c\u0926\u094d\u0927
p5123
tp5124
sS'saamne'
p5125
(S'sAmane'
p5126
V\u0938\u093e\u092e\u0928\u0947
p5127
tp5128
sS'ameen'
p5129
(S'amIna'
p5130
V\u0905\u092e\u0940\u0928
p5131
tp5132
sS'rulaye'
p5133
(S'rulAyA'
p5134
V\u0930\u0941\u0932\u093e\u092f\u093e
p5135
tp5136
sS'jaenge'
p5137
(S'jAeMge'
p5138
V\u091c\u093e\u090f\u0902\u0917\u0947
p5139
tp5140
sS'jise'
p5141
(S'jEse'
p5142
V\u091c\u0948\u0938\u0947
p5143
tp5144
sS'esa'
p5145
(S'EsA'
p5146
V\u0910\u0938\u093e
p5147
tp5148
sS'kch'
p5149
(S'kaCa'
p5150
V\u0915\u091b
p5151
tp5152
sS'maar'
p5153
(S'mAMra'
p5154
V\u092e\u093e\u0902\u0930
p5155
tp5156
sS'thoda'
p5157
(S'WodZA'
p5158
V\u0925\u094b\u0921\u093c\u093e
p5159
tp5160
sS'thode'
p5161
(S'WodZe'
p5162
V\u0925\u094b\u0921\u093c\u0947
p5163
tp5164
sS'thodi'
p5165
(S'WodZI'
p5166
V\u0925\u094b\u0921\u093c\u0940
p5167
tp5168
sS'aaye'
p5169
(S'WAye'
p5170
V\u0925\u093e\u092f\u0947
p5171
tp5172
sS'peechle'
p5173
(S'pagale'
p5174
V\u092a\u0917\u0932\u0947
p5175
tp5176
sS'karwane'
p5177
(S'karavAne'
p5178
V\u0915\u0930\u0935\u093e\u0928\u0947
p5179
tp5180
sS'pdega'
p5181
(S'padZegA'
p5182
V\u092a\u0921\u093c\u0947\u0917\u093e
p5183
tp5184
sS'bachha'
p5185
(S'BACA'
p5186
V\u092d\u093e\u091b\u093e
p5187
tp5188
sS'bhool'
p5189
(S'BUla'
p5190
V\u092d\u0942\u0932
p5191
tp5192
sS'bhoot'
p5193
(S'bahUwa'
p5194
V\u092c\u0939\u0942\u0924
p5195
tp5196
sS'bde'
p5197
(S'badZe'
p5198
V\u092c\u0921\u093c\u0947
p5199
tp5200
sS'bda'
p5201
(S'badZA'
p5202
V\u092c\u0921\u093c\u093e
p5203
tp5204
sS'pareshan'
p5205
(S'pareSAna'
p5206
V\u092a\u0930\u0947\u0936\u093e\u0928
p5207
tp5208
sS'bdi'
p5209
(S'badZI'
p5210
V\u092c\u0921\u093c\u0940
p5211
tp5212
sS'khokhli'
p5213
(S'KoKalI'
p5214
V\u0916\u094b\u0916\u0932\u0940
p5215
tp5216
sS'kafi'
p5217
(S'kAPI'
p5218
V\u0915\u093e\u092b\u0940
p5219
tp5220
sS'admi'
p5221
(S'AxamI'
p5222
V\u0906\u0926\u092e\u0940
p5223
tp5224
sS'jarur'
p5225
(S'jarUra'
p5226
V\u091c\u0930\u0942\u0930
p5227
tp5228
sS'lagta'
p5229
(S'lagawA'
p5230
V\u0932\u0917\u0924\u093e
p5231
tp5232
sS'haaji'
p5233
(S'hAjI'
p5234
V\u0939\u093e\u091c\u0940
p5235
tp5236
sS'lagti'
p5237
(S'lagawI'
p5238
V\u0932\u0917\u0924\u0940
p5239
tp5240
sS'sehmat'
p5241
(S'sahamawa'
p5242
V\u0938\u0939\u092e\u0924
p5243
tp5244
sS'banate'
p5245
(S'banAwe'
p5246
V\u092c\u0928\u093e\u0924\u0947
p5247
tp5248
sS'bdhya'
p5249
(S'baMXAyA'
p5250
V\u092c\u0902\u0927\u093e\u092f\u093e
p5251
tp5252
sS'sirf'
p5253
(S'sirPa'
p5254
V\u0938\u093f\u0930\u094d\u092b
p5255
tp5256
sS'app'
p5257
(S'Apa'
p5258
V\u0906\u092a
p5259
tp5260
sS'manne'
p5261
(S'mAnane'
p5262
V\u092e\u093e\u0928\u0928\u0947
p5263
tp5264
sS'babuji'
p5265
(S'bAbUjI'
p5266
V\u092c\u093e\u092c\u0942\u091c\u0940
p5267
tp5268
sS'use'
p5269
(S'use'
p5270
V\u0909\u0938\u0947
p5271
tp5272
sS'chd'
p5273
(S'caDZa'
p5274
V\u091a\u0922\u093c
p5275
tp5276
sS'chl'
p5277
(S'cala'
p5278
V\u091a\u0932
p5279
tp5280
sS'usi'
p5281
(S'usI'
p5282
V\u0909\u0938\u0940
p5283
tp5284
sS'uss'
p5285
(S'usa'
p5286
V\u0909\u0938
p5287
tp5288
sS'chu'
p5289
(S'CU'
p5290
V\u091b\u0942
p5291
tp5292
sS'bethe'
p5293
(S'beWe'
p5294
V\u092c\u0947\u0925\u0947
p5295
tp5296
sS'tharki'
p5297
(S'WirakI'
p5298
V\u0925\u093f\u0930\u0915\u0940
p5299
tp5300
sS'angrezi'
p5301
(S'aMgrejZI'
p5302
V\u0905\u0902\u0917\u094d\u0930\u0947\u091c\u093c\u0940
p5303
tp5304
sS'dalne'
p5305
(S'dAlane'
p5306
V\u0921\u093e\u0932\u0928\u0947
p5307
tp5308
sS'tharkan'
p5309
(S'WarIna'
p5310
V\u0925\u0930\u0940\u0928
p5311
tp5312
sS'hein'
p5313
(S'hIM'
p5314
V\u0939\u0940\u0902
p5315
tp5316
sS'azaad'
p5317
(S'AjZAxa'
p5318
V\u0906\u091c\u093c\u093e\u0926
p5319
tp5320
sS'chahre'
p5321
(S'cahare'
p5322
V\u091a\u0939\u0930\u0947
p5323
tp5324
sS'thik'
p5325
(S'TIka'
p5326
V\u0920\u0940\u0915
p5327
tp5328
sS'mahilayo'
p5329
(S'mahilayo'
p5330
V\u092e\u0939\u093f\u0932\u092f\u094b
p5331
tp5332
sS'nawaz'
p5333
(S'navAjZa'
p5334
V\u0928\u0935\u093e\u091c\u093c
p5335
tp5336
sS'rkha'
p5337
(S'raKA'
p5338
V\u0930\u0916\u093e
p5339
tp5340
sS'meet'
p5341
(S'mOwa'
p5342
V\u092e\u094c\u0924
p5343
tp5344
sS'salay'
p5345
(S'salAI'
p5346
V\u0938\u0932\u093e\u0908
p5347
tp5348
sS'tab'
p5349
(S'waba'
p5350
V\u0924\u092c
p5351
tp5352
sS'tal'
p5353
(S'tAla'
p5354
V\u091f\u093e\u0932
p5355
tp5356
sS'vaise'
p5357
(S'vaise'
p5358
V\u0935\u0907\u0938\u0947
p5359
tp5360
sS'shayed'
p5361
(S'Sa'
p5362
V\u0936
p5363
tp5364
sS'kru'
p5365
(S'krU'
p5366
V\u0915\u094d\u0930\u0942
p5367
tp5368
sS'vaisa'
p5369
(S'vAisa'
p5370
V\u0935\u093e\u0907\u0938
p5371
tp5372
sS'tak'
p5373
(S'waka'
p5374
V\u0924\u0915
p5375
tp5376
sS'ayengeee'
p5377
(S'AeMge'
p5378
V\u0906\u090f\u0902\u0917\u0947
p5379
tp5380
sS'chahiye'
p5381
(S'cAhiye'
p5382
V\u091a\u093e\u0939\u093f\u092f\u0947
p5383
tp5384
sS'uchal'
p5385
(S'uCAla'
p5386
V\u0909\u091b\u093e\u0932
p5387
tp5388
sS'dharm'
p5389
(S'Xarma'
p5390
V\u0927\u0930\u094d\u092e
p5391
tp5392
sS'dhyaan'
p5393
(S'XyAna'
p5394
V\u0927\u094d\u092f\u093e\u0928
p5395
tp5396
sS'inse'
p5397
(S'inase'
p5398
V\u0907\u0928\u0938\u0947
p5399
tp5400
sS'dekhen'
p5401
(S'xeKeM'
p5402
V\u0926\u0947\u0916\u0947\u0902
p5403
tp5404
sS'hawa'
p5405
(S'havA'
p5406
V\u0939\u0935\u093e
p5407
tp5408
sS'jinhe'
p5409
(S'jinheM'
p5410
V\u091c\u093f\u0928\u094d\u0939\u0947\u0902
p5411
tp5412
sS'isse'
p5413
(S'isase'
p5414
V\u0907\u0938\u0938\u0947
p5415
tp5416
sS'paas'
p5417
(S'pAWasa'
p5418
V\u092a\u093e\u0925\u0938
p5419
tp5420
sS'popat'
p5421
(S'popata'
p5422
V\u092a\u094b\u092a\u091f
p5423
tp5424
sS'bina'
p5425
(S'binA'
p5426
V\u092c\u093f\u0928\u093e
p5427
tp5428
sS'baapu'
p5429
(S'bApU'
p5430
V\u092c\u093e\u092a\u0942
p5431
tp5432
sS'sapnon'
p5433
(S'sapanoM'
p5434
V\u0938\u092a\u0928\u094b\u0902
p5435
tp5436
sS'kbi'
p5437
(S'kaBI'
p5438
V\u0915\u092d\u0940
p5439
tp5440
sS'nigal'
p5441
(S'nigala'
p5442
V\u0928\u093f\u0917\u0932
p5443
tp5444
sS'nigam'
p5445
(S'nigama'
p5446
V\u0928\u093f\u0917\u092e
p5447
tp5448
sS'ladkia'
p5449
(S'ladakiyA'
p5450
V\u0932\u0921\u0915\u093f\u092f\u093e
p5451
tp5452
sS'lg'
p5453
(S'laga'
p5454
V\u0932\u0917
p5455
tp5456
sS'le'
p5457
(S'le'
p5458
V\u0932\u0947
p5459
tp5460
sS'dekhne'
p5461
(S'xeKane'
p5462
V\u0926\u0947\u0916\u0928\u0947
p5463
tp5464
sS'lo'
p5465
(S'lo'
p5466
V\u0932\u094b
p5467
tp5468
sS'wajha'
p5469
(S'va'
p5470
V\u0935
p5471
tp5472
sS'li'
p5473
(S'lI'
p5474
V\u0932\u0940
p5475
tp5476
sS'khel'
p5477
(S'Kela'
p5478
V\u0916\u0947\u0932
p5479
tp5480
sS'dunga'
p5481
(S'xUMgA'
p5482
V\u0926\u0942\u0902\u0917\u093e
p5483
tp5484
sS'dikh'
p5485
(S'xiKa'
p5486
V\u0926\u093f\u0916
p5487
tp5488
sS'mubariq'
p5489
(S'mubariq'
p5490
V\u092e\u0941\u092c\u0930\u093f\u090b
p5491
tp5492
sS'dab'
p5493
(S'xaba'
p5494
V\u0926\u092c
p5495
tp5496
sS'dal'
p5497
(S'xala'
p5498
V\u0926\u0932
p5499
tp5500
sS'kisi'
p5501
(S'kisI'
p5502
V\u0915\u093f\u0938\u0940
p5503
tp5504
sS'panga'
p5505
(S'paMgA'
p5506
V\u092a\u0902\u0917\u093e
p5507
tp5508
sS'dar'
p5509
(S'xara'
p5510
V\u0926\u0930
p5511
tp5512
sS'dusro'
p5513
(S'xUsaroM'
p5514
V\u0926\u0942\u0938\u0930\u094b\u0902
p5515
tp5516
sS'kholkr'
p5517
(S'Kolakara'
p5518
V\u0916\u094b\u0932\u0915\u0930
p5519
tp5520
sS'pakau'
p5521
(S'pa'
p5522
V\u092a
p5523
tp5524
sS'betta'
p5525
(S'bIwawA'
p5526
V\u092c\u0940\u0924\u0924\u093e
p5527
tp5528
sS'jhela'
p5529
(S'Jela'
p5530
V\u091d\u0947\u0932
p5531
tp5532
sS'bachi'
p5533
(S'bacI'
p5534
V\u092c\u091a\u0940
p5535
tp5536
sS'bacho'
p5537
(S'baco'
p5538
V\u092c\u091a\u094b
p5539
tp5540
sS'modi'
p5541
(S'moxI'
p5542
V\u092e\u094b\u0926\u0940
p5543
tp5544
sS'bacha'
p5545
(S'bacA'
p5546
V\u092c\u091a\u093e
p5547
tp5548
sS'katta'
p5549
(S'kattA'
p5550
V\u0915\u091f\u094d\u091f\u093e
p5551
tp5552
sS'jarurat'
p5553
(S'jarurawa'
p5554
V\u091c\u0930\u0941\u0930\u0924
p5555
tp5556
sS'ldke'
p5557
(S'ladZake'
p5558
V\u0932\u0921\u093c\u0915\u0947
p5559
tp5560
sS'ldka'
p5561
(S'ladZakA'
p5562
V\u0932\u0921\u093c\u0915\u093e
p5563
tp5564
sS'ldko'
p5565
(S'ladZakoM'
p5566
V\u0932\u0921\u093c\u0915\u094b\u0902
p5567
tp5568
sS'ldki'
p5569
(S'ladZakI'
p5570
V\u0932\u0921\u093c\u0915\u0940
p5571
tp5572
sS'banao'
p5573
(S'banAo'
p5574
V\u092c\u0928\u093e\u0913
p5575
tp5576
sS'tyar'
p5577
(S'tIAra'
p5578
V\u091f\u0940\u0906\u0930
p5579
tp5580
sS'jitni'
p5581
(S'jiwanI'
p5582
V\u091c\u093f\u0924\u0928\u0940
p5583
tp5584
sS'reh'
p5585
(S'raha'
p5586
V\u0930\u0939
p5587
tp5588
sS'aata'
p5589
(S'ARtA'
p5590
V\u0906\u0937\u094d\u091f\u093e
p5591
tp5592
sS'mata'
p5593
(S'mAwA'
p5594
V\u092e\u093e\u0924\u093e
p5595
tp5596
sS'aati'
p5597
(S'BAwI'
p5598
V\u092d\u093e\u0924\u0940
p5599
tp5600
sS'jisme'
p5601
(S'jisameM'
p5602
V\u091c\u093f\u0938\u092e\u0947\u0902
p5603
tp5604
sS'ban'
p5605
(S'bana'
p5606
V\u092c\u0928
p5607
tp5608
sS'kharb'
p5609
(S'Karaba'
p5610
V\u0916\u0930\u092c
p5611
tp5612
sS'kaun'
p5613
(S'kauna'
p5614
V\u0915\u0909\u0928
p5615
tp5616
sS'pkode'
p5617
(S'pakodZe'
p5618
V\u092a\u0915\u094b\u0921\u093c\u0947
p5619
tp5620
sS'khelte'
p5621
(S'Kelawe'
p5622
V\u0916\u0947\u0932\u0924\u0947
p5623
tp5624
sS'faltu'
p5625
(S'PAlawU'
p5626
V\u092b\u093e\u0932\u0924\u0942
p5627
tp5628
sS'maalik'
p5629
(S'mAlika'
p5630
V\u092e\u093e\u0932\u093f\u0915
p5631
tp5632
sS'bhukha'
p5633
(S'BUKA'
p5634
V\u092d\u0942\u0916\u093e
p5635
tp5636
sS'pgl'
p5637
(S'pala'
p5638
V\u092a\u0932
p5639
tp5640
sS'sach'
p5641
(S'saca'
p5642
V\u0938\u091a
p5643
tp5644
sS'kaise'
p5645
(S'kaise'
p5646
V\u0915\u0907\u0938\u0947
p5647
tp5648
sS'dhunde'
p5649
(S'DUMDe'
p5650
V\u0922\u0942\u0902\u0922\u0947
p5651
tp5652
sS'kaisa'
p5653
(S'kAIsa'
p5654
V\u0915\u093e\u0908\u0938
p5655
tp5656
sS'bnda/i'
p5657
(S'bnda/i'
p5658
V\u092c\u094d\u0928\u094d\u0921/\u0907
p5659
tp5660
sS'mje'
p5661
(S'maje'
p5662
V\u092e\u091c\u0947
p5663
tp5664
sS'nikalna'
p5665
(S'nikAlanA'
p5666
V\u0928\u093f\u0915\u093e\u0932\u0928\u093e
p5667
tp5668
sS'nikalne'
p5669
(S'nikAlane'
p5670
V\u0928\u093f\u0915\u093e\u0932\u0928\u0947
p5671
tp5672
sS'uda'
p5673
(S'udZA'
p5674
V\u0909\u0921\u093c\u093e
p5675
tp5676
sS'udd'
p5677
(S'udZaxa'
p5678
V\u0909\u0921\u093c\u0926
p5679
tp5680
sS'gayi'
p5681
(S'gayI'
p5682
V\u0917\u092f\u0940
p5683
tp5684
sS'gaya'
p5685
(S'gayA'
p5686
V\u0917\u092f\u093e
p5687
tp5688
sS'khujli'
p5689
(S'KujalI'
p5690
V\u0916\u0941\u091c\u0932\u0940
p5691
tp5692
sS'gaye'
p5693
(S'gaye'
p5694
V\u0917\u092f\u0947
p5695
tp5696
sS'sakta'
p5697
(S'sakawA'
p5698
V\u0938\u0915\u0924\u093e
p5699
tp5700
sS'btaye'
p5701
(S'bawAye'
p5702
V\u092c\u0924\u093e\u092f\u0947
p5703
tp5704
sS'hamara'
p5705
(S'hamArA'
p5706
V\u0939\u092e\u093e\u0930\u093e
p5707
tp5708
sS'batao'
p5709
(S'bawAo'
p5710
V\u092c\u0924\u093e\u0913
p5711
tp5712
sS'sakte'
p5713
(S'sakawe'
p5714
V\u0938\u0915\u0924\u0947
p5715
tp5716
sS'tarah'
p5717
(S'waraha'
p5718
V\u0924\u0930\u0939
p5719
tp5720
sS'tabi'
p5721
(S'waBI'
p5722
V\u0924\u092d\u0940
p5723
tp5724
sS'jinko'
p5725
(S'jinako'
p5726
V\u091c\u093f\u0928\u0915\u094b
p5727
tp5728
sS'tale'
p5729
(S'wAle'
p5730
V\u0924\u093e\u0932\u0947
p5731
tp5732
sS'mil'
p5733
(S'mila'
p5734
V\u092e\u093f\u0932
p5735
tp5736
sS'chutiyaa'
p5737
(S'cutiyA'
p5738
V\u091a\u0941\u091f\u093f\u092f\u093e
p5739
tp5740
sS'waise'
p5741
(S'vAisa'
p5742
V\u0935\u093e\u0907\u0938
p5743
tp5744
sS'kaiko'
p5745
(S'kaMkaNa'
p5746
V\u0915\u0902\u0915\u0923
p5747
tp5748
sS'wha'
p5749
(S'vahAM'
p5750
V\u0935\u0939\u093e\u0902
p5751
tp5752
sS'talash'
p5753
(S'walASa'
p5754
V\u0924\u0932\u093e\u0936
p5755
tp5756
sS'masti'
p5757
(S'maswI'
p5758
V\u092e\u0938\u094d\u0924\u0940
p5759
tp5760
sS'pyr'
p5761
(S'pa'
p5762
V\u092a
p5763
tp5764
sS'whi'
p5765
(S'vahI'
p5766
V\u0935\u0939\u0940
p5767
tp5768
sS'dubo'
p5769
(S'dubo'
p5770
V\u0921\u0941\u092c\u094b
p5771
tp5772
sS'chahat'
p5773
(S'cAhawa'
p5774
V\u091a\u093e\u0939\u0924
p5775
tp5776
sS'dariya'
p5777
(S'xariyA'
p5778
V\u0926\u0930\u093f\u092f\u093e
p5779
tp5780
sS'dube'
p5781
(S'xube'
p5782
V\u0926\u0941\u092c\u0947
p5783
tp5784
sS'ucchalo'
p5785
(S'ugala'
p5786
V\u0909\u0917\u0932
p5787
tp5788
sS'pdhne'
p5789
(S'paDZane'
p5790
V\u092a\u0922\u093c\u0928\u0947
p5791
tp5792
sS'dena'
p5793
(S'xenA'
p5794
V\u0926\u0947\u0928\u093e
p5795
tp5796
sS'dene'
p5797
(S'xene'
p5798
V\u0926\u0947\u0928\u0947
p5799
tp5800
sS'bhaiya'
p5801
(S'BEyA'
p5802
V\u092d\u0948\u092f\u093e
p5803
tp5804
sS'bhen'
p5805
(S'bahena'
p5806
V\u092c\u0939\u0947\u0928
p5807
tp5808
sS'smjhane'
p5809
(S'samaJAne'
p5810
V\u0938\u092e\u091d\u093e\u0928\u0947
p5811
tp5812
sS'ni'
p5813
(S'ne'
p5814
V\u0928\u0947
p5815
tp5816
sS'jay'
p5817
(S'jaya'
p5818
V\u091c\u092f
p5819
tp5820
sS'sochna'
p5821
(S'socanA'
p5822
V\u0938\u094b\u091a\u0928\u093e
p5823
tp5824
sS'hadd'
p5825
(S'haxa'
p5826
V\u0939\u0926
p5827
tp5828
sS'dikhao'
p5829
(S'xiKAo'
p5830
V\u0926\u093f\u0916\u093e\u0913
p5831
tp5832
sS'kse'
p5833
(S'kEse'
p5834
V\u0915\u0948\u0938\u0947
p5835
tp5836
sS'jao'
p5837
(S'jAo'
p5838
V\u091c\u093e\u0913
p5839
tp5840
sS'jal'
p5841
(S'jala'
p5842
V\u091c\u0932
p5843
tp5844
sS'ilawa'
p5845
(S'ilAvA'
p5846
V\u0907\u0932\u093e\u0935\u093e
p5847
tp5848
sS'jai'
p5849
(S'jAe'
p5850
V\u091c\u093e\u090f
p5851
tp5852
sS'tune'
p5853
(S'wUne'
p5854
V\u0924\u0942\u0928\u0947
p5855
tp5856
sS'jae'
p5857
(S'jAe'
p5858
V\u091c\u093e\u090f
p5859
tp5860
sS'jab'
p5861
(S'jaba'
p5862
V\u091c\u092c
p5863
tp5864
sS'ksh'
p5865
(S'kRa'
p5866
V\u0915\u094d\u0937
p5867
tp5868
sS'jaa'
p5869
(S'jAnA'
p5870
V\u091c\u093e\u0928\u093e
p5871
tp5872
sS'leli'
p5873
(S'leslI'
p5874
V\u0932\u0947\u0938\u094d\u0932\u0940
p5875
tp5876
sS'abbe'
p5877
(S'abe'
p5878
V\u0905\u092c\u0947
p5879
tp5880
sS'tbi'
p5881
(S'waBI'
p5882
V\u0924\u092d\u0940
p5883
tp5884
sS'jasi'
p5885
(S'jEsI'
p5886
V\u091c\u0948\u0938\u0940
p5887
tp5888
sS'h'
p5889
(S'ha'
p5890
V\u0939
p5891
tp5892
sS'karke'
p5893
(S'karake'
p5894
V\u0915\u0930\u0915\u0947
p5895
tp5896
sS'aek'
p5897
(S'eka'
p5898
V\u090f\u0915
p5899
tp5900
sS'btati'
p5901
(S'bawAwI'
p5902
V\u092c\u0924\u093e\u0924\u0940
p5903
tp5904
sS'unko'
p5905
(S'unako'
p5906
V\u0909\u0928\u0915\u094b
p5907
tp5908
sS'unki'
p5909
(S'unakI'
p5910
V\u0909\u0928\u0915\u0940
p5911
tp5912
sS'unke'
p5913
(S'unake'
p5914
V\u0909\u0928\u0915\u0947
p5915
tp5916
sS'unka'
p5917
(S'unakA'
p5918
V\u0909\u0928\u0915\u093e
p5919
tp5920
sS'bta'
p5921
(S'bawA'
p5922
V\u092c\u0924\u093e
p5923
tp5924
sS'bhootni'
p5925
(S'BakawI'
p5926
V\u092d\u0915\u0924\u0940
p5927
tp5928
sS'itni'
p5929
(S'iwanI'
p5930
V\u0907\u0924\u0928\u0940
p5931
tp5932
sS'panti'
p5933
(S'pEMtI'
p5934
V\u092a\u0948\u0902\u091f\u0940
p5935
tp5936
sS'karwa'
p5937
(S'karavA'
p5938
V\u0915\u0930\u0935\u093e
p5939
tp5940
sS'itne'
p5941
(S'iwane'
p5942
V\u0907\u0924\u0928\u0947
p5943
tp5944
sS'itna'
p5945
(S'iwanA'
p5946
V\u0907\u0924\u0928\u093e
p5947
tp5948
sS'smjhne'
p5949
(S'samaJane'
p5950
V\u0938\u092e\u091d\u0928\u0947
p5951
tp5952
sS'vhi'
p5953
(S'vahI'
p5954
V\u0935\u0939\u0940
p5955
tp5956
sS'keh'
p5957
(S'kaha'
p5958
V\u0915\u0939
p5959
tp5960
sS'tuje'
p5961
(S'wuJe'
p5962
V\u0924\u0941\u091d\u0947
p5963
tp5964
sS'ker'
p5965
(S'keyara'
p5966
V\u0915\u0947\u092f\u0930
p5967
tp5968
sS'alkas'
p5969
(S'aMka'
p5970
V\u0905\u0902\u0915
p5971
tp5972
sS'bekaar'
p5973
(S'bekAra'
p5974
V\u092c\u0947\u0915\u093e\u0930
p5975
tp5976
sS'aegi'
p5977
(S'AegI'
p5978
V\u0906\u090f\u0917\u0940
p5979
tp5980
sS'aega'
p5981
(S'AegA'
p5982
V\u0906\u090f\u0917\u093e
p5983
tp5984
sS'marte'
p5985
(S'mArawe'
p5986
V\u092e\u093e\u0930\u0924\u0947
p5987
tp5988
sS'gidgidahat'
p5989
(S'gidZagidZAhata'
p5990
V\u0917\u093f\u0921\u093c\u0917\u093f\u0921\u093c\u093e\u0939\u091f
p5991
tp5992
sS'wale'
p5993
(S'vAle'
p5994
V\u0935\u093e\u0932\u0947
p5995
tp5996
sS'wala'
p5997
(S'vAlA'
p5998
V\u0935\u093e\u0932\u093e
p5999
tp6000
sS'walo'
p6001
(S'vAloM'
p6002
V\u0935\u093e\u0932\u094b\u0902
p6003
tp6004
sS'wali'
p6005
(S'vAlI'
p6006
V\u0935\u093e\u0932\u0940
p6007
tp6008
sS'knsa'
p6009
(S'kaMsA'
p6010
V\u0915\u0902\u0938\u093e
p6011
tp6012
sS'khaak'
p6013
(S'KAtaka'
p6014
V\u0916\u093e\u091f\u0915
p6015
tp6016
sS'kahu'
p6017
(S'kAhU'
p6018
V\u0915\u093e\u0939\u0942
p6019
tp6020
sS'sara'
p6021
(S'sArA'
p6022
V\u0938\u093e\u0930\u093e
p6023
tp6024
sS'sare'
p6025
(S'sAre'
p6026
V\u0938\u093e\u0930\u0947
p6027
tp6028
sS'kahi'
p6029
(S'kahI'
p6030
V\u0915\u0939\u0940
p6031
tp6032
sS'mudde'
p6033
(S'muxxe'
p6034
V\u092e\u0941\u0926\u094d\u0926\u0947
p6035
tp6036
sS'yad'
p6037
(S'yAxa'
p6038
V\u092f\u093e\u0926
p6039
tp6040
sS'muddo'
p6041
(S'muxxoM'
p6042
V\u092e\u0941\u0926\u094d\u0926\u094b\u0902
p6043
tp6044
sS'kaha'
p6045
(S'kahA'
p6046
V\u0915\u0939\u093e
p6047
tp6048
sS'phele'
p6049
(S'pahele'
p6050
V\u092a\u0939\u0947\u0932\u0947
p6051
tp6052
sS'lgi'
p6053
(S'lagI'
p6054
V\u0932\u0917\u0940
p6055
tp6056
sS'bedar'
p6057
(S'baMkara'
p6058
V\u092c\u0902\u0915\u0930
p6059
tp6060
sS'lga'
p6061
(S'lagA'
p6062
V\u0932\u0917\u093e
p6063
tp6064
sS'lge'
p6065
(S'lage'
p6066
V\u0932\u0917\u0947
p6067
tp6068
sS'hme'
p6069
(S'hame'
p6070
V\u0939\u092e\u0947
p6071
tp6072
sS'chlta'
p6073
(S'calawA'
p6074
V\u091a\u0932\u0924\u093e
p6075
tp6076
sS'bimari'
p6077
(S'bImArI'
p6078
V\u092c\u0940\u092e\u093e\u0930\u0940
p6079
tp6080
sS'maur'
p6081
(S'mAWura'
p6082
V\u092e\u093e\u0925\u0941\u0930
p6083
tp6084
sS'kuch'
p6085
(S'kuCa'
p6086
V\u0915\u0941\u091b
p6087
tp6088
sS'chalu'
p6089
(S'cAlU'
p6090
V\u091a\u093e\u0932\u0942
p6091
tp6092
sS'khta-2'
p6093
(S'khta-2'
p6094
V\u0915\u094d\u0939\u094d\u091f-2
p6095
tp6096
sS'agar'
p6097
(S'agara'
p6098
V\u0905\u0917\u0930
p6099
tp6100
sS'chali'
p6101
(S'calI'
p6102
V\u091a\u0932\u0940
p6103
tp6104
sS'umar'
p6105
(S'umara'
p6106
V\u0909\u092e\u0930
p6107
tp6108
sS'chalo'
p6109
(S'cAla'
p6110
V\u091a\u093e\u0932
p6111
tp6112
sS'chala'
p6113
(S'cAla'
p6114
V\u091a\u093e\u0932
p6115
tp6116
sS'chale'
p6117
(S'cale'
p6118
V\u091a\u0932\u0947
p6119
tp6120
sS'lambi'
p6121
(S'laMbI'
p6122
V\u0932\u0902\u092c\u0940
p6123
tp6124
sS'kise'
p6125
(S'kEse'
p6126
V\u0915\u0948\u0938\u0947
p6127
tp6128
sS'kuki'
p6129
(S'kukI'
p6130
V\u0915\u0941\u0915\u0940
p6131
tp6132
sS'site'
p6133
(S'sIteM'
p6134
V\u0938\u0940\u091f\u0947\u0902
p6135
tp6136
sS'vo'
p6137
(S'vo'
p6138
V\u0935\u094b
p6139
tp6140
sS'kuchh'
p6141
(S'kuCa'
p6142
V\u0915\u0941\u091b
p6143
tp6144
sS'murane'
p6145
(S'marane'
p6146
V\u092e\u0930\u0928\u0947
p6147
tp6148
sS'likhai'
p6149
(S'liKAI'
p6150
V\u0932\u093f\u0916\u093e\u0908
p6151
tp6152
sS'rahiyo'
p6153
(S'raKiyA'
p6154
V\u0930\u0916\u093f\u092f\u093e
p6155
tp6156
sS'vishwavidyalaya'
p6157
(S'viSvavixyAlaya'
p6158
V\u0935\u093f\u0936\u094d\u0935\u0935\u093f\u0926\u094d\u092f\u093e\u0932\u092f
p6159
tp6160
sS'jamane'
p6161
(S'jamAne'
p6162
V\u091c\u092e\u093e\u0928\u0947
p6163
tp6164
sS'dusu'
p6165
(S'dUsU'
p6166
V\u0921\u0942\u0938\u0942
p6167
tp6168
sS'dheere'
p6169
(S'XIre'
p6170
V\u0927\u0940\u0930\u0947
p6171
tp6172
sS'choot'
p6173
(S'CUta'
p6174
V\u091b\u0942\u091f
p6175
tp6176
sS'jawan'
p6177
(S'javAna'
p6178
V\u091c\u0935\u093e\u0928
p6179
tp6180
sS'mtlb'
p6181
(S'mawalaba'
p6182
V\u092e\u0924\u0932\u092c
p6183
tp6184
sS'jawab'
p6185
(S'javAba'
p6186
V\u091c\u0935\u093e\u092c
p6187
tp6188
sS'gareeb'
p6189
(S'garIba'
p6190
V\u0917\u0930\u0940\u092c
p6191
tp6192
sS'muchhe'
p6193
(S'mUCeM'
p6194
V\u092e\u0942\u091b\u0947\u0902
p6195
tp6196
sS'uthale'
p6197
(S'uWale'
p6198
V\u0909\u0925\u0932\u0947
p6199
tp6200
sS'mattt'
p6201
(S'ma'
p6202
V\u092e
p6203
tp6204
sS'dost'
p6205
(S'xoswa'
p6206
V\u0926\u094b\u0938\u094d\u0924
p6207
tp6208
sS'adp'
p6209
(g3778
V\u0905
p6210
tp6211
sS'jara'
p6212
(S'jarA'
p6213
V\u091c\u0930\u093e
p6214
tp6215
sS'weh'
p6216
(S'vaha'
p6217
V\u0935\u0939
p6218
tp6219
sS'dhund'
p6220
(S'DUMDa'
p6221
V\u0922\u0942\u0902\u0922
p6222
tp6223
sS'reha'
p6224
(S'rahA'
p6225
V\u0930\u0939\u093e
p6226
tp6227
sS'daadi'
p6228
(S'xAnAxi'
p6229
V\u0926\u093e\u0928\u093e\u0926\u093f
p6230
tp6231
sS'bandariya'
p6232
(S'banxariyA'
p6233
V\u092c\u0928\u094d\u0926\u0930\u093f\u092f\u093e
p6234
tp6235
sS'pyaari'
p6236
(S'pyArI'
p6237
V\u092a\u094d\u092f\u093e\u0930\u0940
p6238
tp6239
sS'desh'
p6240
(S'xeSa'
p6241
V\u0926\u0947\u0936
p6242
tp6243
sS'keval'
p6244
(S'kevala'
p6245
V\u0915\u0947\u0935\u0932
p6246
tp6247
sS'likh'
p6248
(S'liKa'
p6249
V\u0932\u093f\u0916
p6250
tp6251
sS'baare'
p6252
(S'bAre'
p6253
V\u092c\u093e\u0930\u0947
p6254
tp6255
sS'waheguru'
p6256
(S'vAheguru'
p6257
V\u0935\u093e\u0939\u0947\u0917\u0941\u0930\u0941
p6258
tp6259
sS'roti'
p6260
(S'rotI'
p6261
V\u0930\u094b\u091f\u0940
p6262
tp6263
sS'pyar'
p6264
(S'pyAra'
p6265
V\u092a\u094d\u092f\u093e\u0930
p6266
tp6267
sS'kyun'
p6268
(S'kyoM'
p6269
V\u0915\u094d\u092f\u094b\u0902
p6270
tp6271
sS'kdo'
p6272
(S'kaxo'
p6273
V\u0915\u0926\u094b
p6274
tp6275
sS'waqt'
p6276
(S'vakZwa'
p6277
V\u0935\u0915\u093c\u094d\u0924
p6278
tp6279
sS'congressi'
p6280
(S'kAMgresI'
p6281
V\u0915\u093e\u0902\u0917\u094d\u0930\u0947\u0938\u0940
p6282
tp6283
sS'hain'
p6284
(S'hAita'
p6285
V\u0939\u093e\u0907\u091f
p6286
tp6287
sS'vse'
p6288
(S'vaMxe'
p6289
V\u0935\u0902\u0926\u0947
p6290
tp6291
sS'husn'
p6292
(S'hasana'
p6293
V\u0939\u0938\u0928
p6294
tp6295
sS'varna'
p6296
(S'varanA'
p6297
V\u0935\u0930\u0928\u093e
p6298
tp6299
sS'enke'
p6300
(S'enake'
p6301
V\u090f\u0928\u0915\u0947
p6302
tp6303
sS'soiyo'
p6304
(S'saiGo'
p6305
V\u0938\u0907\u0918\u094b
p6306
tp6307
sS'yaad'
p6308
(S'yArda'
p6309
V\u092f\u093e\u0930\u094d\u0921
p6310
tp6311
sS'puchoge'
p6312
(S'paDZoge'
p6313
V\u092a\u0922\u093c\u094b\u0917\u0947
p6314
tp6315
sS'aapko'
p6316
(S'Apako'
p6317
V\u0906\u092a\u0915\u094b
p6318
tp6319
sS'ese'
p6320
(S'Ese'
p6321
V\u0910\u0938\u0947
p6322
tp6323
sS'girne'
p6324
(S'girane'
p6325
V\u0917\u093f\u0930\u0928\u0947
p6326
tp6327
sS'lagwata'
p6328
(S'laMgadZAwA'
p6329
V\u0932\u0902\u0917\u0921\u093c\u093e\u0924\u093e
p6330
tp6331
sS'tmh'
p6332
(S'waw'
p6333
V\u0924\u0924\u094d
p6334
tp6335
sS'aapke'
p6336
(S'Aapake'
p6337
V\u0906\u0905\u092a\u0915\u0947
p6338
tp6339
sS'aapka'
p6340
(S'ApakA'
p6341
V\u0906\u092a\u0915\u093e
p6342
tp6343
sS'mante'
p6344
(S'mAnawe'
p6345
V\u092e\u093e\u0928\u0924\u0947
p6346
tp6347
sS'uski'
p6348
(S'usakI'
p6349
V\u0909\u0938\u0915\u0940
p6350
tp6351
sS'chaddi'
p6352
(S'caddI'
p6353
V\u091a\u0921\u094d\u0921\u0940
p6354
tp6355
sS'gayrahi'
p6356
(S'gumarAhI'
p6357
V\u0917\u0941\u092e\u0930\u093e\u0939\u0940
p6358
tp6359
sS'pilura'
p6360
(S'piMjarA'
p6361
V\u092a\u093f\u0902\u091c\u0930\u093e
p6362
tp6363
sS'rakhti'
p6364
(S'raKawI'
p6365
V\u0930\u0916\u0924\u0940
p6366
tp6367
sS'pakad'
p6368
(S'pakadZa'
p6369
V\u092a\u0915\u0921\u093c
p6370
tp6371
sS'pike'
p6372
(S'pIke'
p6373
V\u092a\u0940\u0915\u0947
p6374
tp6375
sS'sakhte'
p6376
(S'saKwI'
p6377
V\u0938\u0916\u094d\u0924\u0940
p6378
tp6379
sS'izzat'
p6380
(S'ijZjZawa'
p6381
V\u0907\u091c\u093c\u094d\u091c\u093c\u0924
p6382
tp6383
sS'ander'
p6384
(S'eNdera'
p6385
V\u090f\u0923\u094d\u0921\u0947\u0930
p6386
tp6387
sS'kro'
p6388
(S'karo'
p6389
V\u0915\u0930\u094b
p6390
tp6391
sS'kra'
p6392
(S'kara'
p6393
V\u0915\u0930
p6394
tp6395
sS'kre'
p6396
(S'kare'
p6397
V\u0915\u0930\u0947
p6398
tp6399
sS'sunkr'
p6400
(S'sunakara'
p6401
V\u0938\u0941\u0928\u0915\u0930
p6402
tp6403
sS'uske'
p6404
(S'usake'
p6405
V\u0909\u0938\u0915\u0947
p6406
tp6407
sS'meri'
p6408
(S'merI'
p6409
V\u092e\u0947\u0930\u0940
p6410
tp6411
sS'bchane'
p6412
(S'bacAne'
p6413
V\u092c\u091a\u093e\u0928\u0947
p6414
tp6415
sS'mera'
p6416
(S'merA'
p6417
V\u092e\u0947\u0930\u093e
p6418
tp6419
sS'mere'
p6420
(S'mere'
p6421
V\u092e\u0947\u0930\u0947
p6422
tp6423
sS'vai'
p6424
(S'vAI'
p6425
V\u0935\u093e\u0908
p6426
tp6427
sS'rhti'
p6428
(S'rahawI'
p6429
V\u0930\u0939\u0924\u0940
p6430
tp6431
sS'maze'
p6432
(S'majZe'
p6433
V\u092e\u091c\u093c\u0947
p6434
tp6435
sS'yrr'
p6436
(S'yara'
p6437
V\u092f\u0930
p6438
tp6439
sS'thoko'
p6440
(S'Woka'
p6441
V\u0925\u094b\u0915
p6442
tp6443
sS'maza'
p6444
(S'majZA'
p6445
V\u092e\u091c\u093c\u093e
p6446
tp6447
sS'hatao'
p6448
(S'hatAo'
p6449
V\u0939\u091f\u093e\u0913
p6450
tp6451
sS'hr'
p6452
(S'hara'
p6453
V\u0939\u0930
p6454
tp6455
sS'bus'
p6456
(S'basa'
p6457
V\u092c\u0938
p6458
tp6459
sS'hq'
p6460
(S'hakZa'
p6461
V\u0939\u0915\u093c
p6462
tp6463
sS'hu'
p6464
(S'hE'
p6465
V\u0939\u0948
p6466
tp6467
sS'hi'
p6468
(S'hE'
p6469
V\u0939\u0948
p6470
tp6471
sS'hn'
p6472
(S'hana'
p6473
V\u0939\u0928
p6474
tp6475
sS'ho'
p6476
(S'ho'
p6477
V\u0939\u094b
p6478
tp6479
sS'schta'
p6480
(S'saMkarawA'
p6481
V\u0938\u0902\u0915\u0930\u0924\u093e
p6482
tp6483
sS'ha'
p6484
(S'hE'
p6485
V\u0939\u0948
p6486
tp6487
sS'he'
p6488
(S'hE'
p6489
V\u0939\u0948
p6490
tp6491
sS'apna'
p6492
(S'apanA'
p6493
V\u0905\u092a\u0928\u093e
p6494
tp6495
sS'majboor'
p6496
(S'majabUra'
p6497
V\u092e\u091c\u092c\u0942\u0930
p6498
tp6499
sS'karta'
p6500
(S'karawA'
p6501
V\u0915\u0930\u0924\u093e
p6502
tp6503
sS'apne'
p6504
(S'apane'
p6505
V\u0905\u092a\u0928\u0947
p6506
tp6507
sS'karte'
p6508
(S'karawe'
p6509
V\u0915\u0930\u0924\u0947
p6510
tp6511
sS'apni'
p6512
(S'apanI'
p6513
V\u0905\u092a\u0928\u0940
p6514
tp6515
sS'karti'
p6516
(S'karawI'
p6517
V\u0915\u0930\u0924\u0940
p6518
tp6519
sS'dhona'
p6520
(S'XonA'
p6521
V\u0927\u094b\u0928\u093e
p6522
tp6523
sS'saala'
p6524
(S'sAyalA'
p6525
V\u0938\u093e\u092f\u0932\u093e
p6526
tp6527
sS'ldkiya'
p6528
(S'ladZakiyAM'
p6529
V\u0932\u0921\u093c\u0915\u093f\u092f\u093e\u0902
p6530
tp6531
sS'saale'
p6532
(S'sAle'
p6533
V\u0938\u093e\u0932\u0947
p6534
tp6535
sS'ldkiyo'
p6536
(S'ladZakiyoM'
p6537
V\u0932\u0921\u093c\u0915\u093f\u092f\u094b\u0902
p6538
tp6539
sS'saalo'
p6540
(S'sAlo'
p6541
V\u0938\u093e\u0932\u094b
p6542
tp6543
sS'mushkil'
p6544
(S'muSkila'
p6545
V\u092e\u0941\u0936\u094d\u0915\u093f\u0932
p6546
tp6547
sS'subah'
p6548
(S'subaha'
p6549
V\u0938\u0941\u092c\u0939
p6550
tp6551
sS'arre'
p6552
(S'are'
p6553
V\u0905\u0930\u0947
p6554
tp6555
sS'banai'
p6556
(S'banAI'
p6557
V\u092c\u0928\u093e\u0908
p6558
tp6559
sS'sharif'
p6560
(S'SarIPa'
p6561
V\u0936\u0930\u0940\u092b
p6562
tp6563
sS'agla'
p6564
(S'agalA'
p6565
V\u0905\u0917\u0932\u093e
p6566
tp6567
sS'janta'
p6568
(S'janawA'
p6569
V\u091c\u0928\u0924\u093e
p6570
tp6571
sS'cheezo'
p6572
(S'cIjZo'
p6573
V\u091a\u0940\u091c\u093c\u094b
p6574
tp6575
sS'lagega'
p6576
(S'lagegA'
p6577
V\u0932\u0917\u0947\u0917\u093e
p6578
tp6579
sS'dyaan'
p6580
(S'xaiyA'
p6581
V\u0926\u0907\u092f\u093e
p6582
tp6583
sS'gidgidaayi'
p6584
(S'gidgidaayi'
p6585
V\u0917\u093f\u0921\u094d\u0917\u093f\u0921\u0905\u092f\u093f
p6586
tp6587
sS'pilao'
p6588
(S'pilAo'
p6589
V\u092a\u093f\u0932\u093e\u0913
p6590
tp6591
sS'bechara'
p6592
(S'becArA'
p6593
V\u092c\u0947\u091a\u093e\u0930\u093e
p6594
tp6595
sS'bechari'
p6596
(S'becArI'
p6597
V\u092c\u0947\u091a\u093e\u0930\u0940
p6598
tp6599
s.